///////////////////////////////////////////////////////////////////////////////
//
// IAR C/C++ Compiler V9.20.1.2476 for 8051               29/Jul/2016  15:40:34
// Copyright 2004-2015 IAR Systems AB.
// Standalone license - IAR Embedded Workbench for 8051
//
//    Core               =  plain
//    Code model         =  banked
//    Data model         =  large
//    Calling convention =  xdata reentrant
//    Constant location  =  data_rom
//    Dptr setup         =  1,16
//                          
//    Source file        =  
//        C:\Users\8470p\Desktop\Z-Stack Mesh 1.0.0
//        ZED\Projects\zstack\Samples\GenericApp\Source\GenericApp.c
//    Command line       =  
//        -f "C:\Users\8470p\Desktop\Z-Stack Mesh 1.0.0
//        ZED\Projects\zstack\Samples\GenericApp\CC2530DB\..\..\..\Tools\CC2530DB\f8wEndev.cfg"
//        (-DCPU32MHZ -DROOT=__near_func -DMAC_CFG_TX_DATA_MAX=3
//        -DMAC_CFG_TX_MAX=6 -DMAC_CFG_RX_MAX=3) -f
//        "C:\Users\8470p\Desktop\Z-Stack Mesh 1.0.0
//        ZED\Projects\zstack\Samples\GenericApp\CC2530DB\..\..\..\Tools\CC2530DB\f8wConfig.cfg"
//        (-DZIGBEEPRO -DSECURE=1 -DZG_SECURE_DYNAMIC=0 -DREFLECTOR
//        -DDEFAULT_CHANLIST=0x00000800 -DZDAPP_CONFIG_PAN_ID=0x1235
//        -DNWK_START_DELAY=100 -DEXTENDED_JOINING_RANDOM_MASK=0x007F
//        -DBEACON_REQUEST_DELAY=100 -DBEACON_REQ_DELAY_MASK=0x00FF
//        -DLINK_STATUS_JITTER_MASK=0x007F -DROUTE_EXPIRY_TIME=30
//        -DAPSC_ACK_WAIT_DURATION_POLLED=2000 -DNWK_INDIRECT_MSG_TIMEOUT=7
//        -DMAX_RREQ_ENTRIES=8 -DAPSC_MAX_FRAME_RETRIES=3
//        -DNWK_MAX_DATA_RETRIES=2 -DMAX_POLL_FAILURE_RETRIES=2 -DMAX_BCAST=9
//        -DAPS_MAX_GROUPS=16 -DMAX_RTG_ENTRIES=40 -DNWK_MAX_BINDING_ENTRIES=4
//        -DMAX_BINDING_CLUSTER_IDS=4 "-DDEFAULT_KEY={0x01, 0x03, 0x05, 0x07,
//        0x09, 0x0B, 0x0D, 0x0F, 0x00, 0x02, 0x04, 0x06, 0x08, 0x0A, 0x0C,
//        0x0D}" -DMAC_MAX_FRAME_SIZE=116 -DZDNWKMGR_MIN_TRANSMISSIONS=20
//        "-DCONST=const __code" -DGENERIC=__generic -DRFD_RCVC_ALWAYS_ON=FALSE
//        -DPOLL_RATE=1000 -DQUEUED_POLL_RATE=100 -DRESPONSE_POLL_RATE=100)
//        -DREJOIN_POLL_RATE=440 "C:\Users\8470p\Desktop\Z-Stack Mesh 1.0.0
//        ZED\Projects\zstack\Samples\GenericApp\Source\GenericApp.c" -D
//        NWK_AUTO_POLL -D ZTOOL_P1 -D MT_TASK -D MT_SYS_FUNC -D MT_ZDO_FUNC -D
//        LCD_SUPPORTED=DEBUG -D xPOWER_SAVING -D MAKE_CRC_SHDW -lC
//        "C:\Users\8470p\Desktop\Z-Stack Mesh 1.0.0
//        ZED\Projects\zstack\Samples\GenericApp\CC2530DB\EndDeviceEB-SBL\List\"
//        -lA "C:\Users\8470p\Desktop\Z-Stack Mesh 1.0.0
//        ZED\Projects\zstack\Samples\GenericApp\CC2530DB\EndDeviceEB-SBL\List\"
//        --diag_suppress Pe001,Pa010 -o "C:\Users\8470p\Desktop\Z-Stack Mesh
//        1.0.0
//        ZED\Projects\zstack\Samples\GenericApp\CC2530DB\EndDeviceEB-SBL\Obj\"
//        -e --no_code_motion --debug --core=plain --dptr=16,1
//        --data_model=large --code_model=banked
//        --calling_convention=xdata_reentrant --place_constants=data_rom
//        --nr_virtual_regs 16 -I "C:\Users\8470p\Desktop\Z-Stack Mesh 1.0.0
//        ZED\Projects\zstack\Samples\GenericApp\CC2530DB\" -I
//        "C:\Users\8470p\Desktop\Z-Stack Mesh 1.0.0
//        ZED\Projects\zstack\Samples\GenericApp\CC2530DB\..\Source\" -I
//        "C:\Users\8470p\Desktop\Z-Stack Mesh 1.0.0
//        ZED\Projects\zstack\Samples\GenericApp\CC2530DB\..\..\..\ZMain\TI2530DB\"
//        -I "C:\Users\8470p\Desktop\Z-Stack Mesh 1.0.0
//        ZED\Projects\zstack\Samples\GenericApp\CC2530DB\..\..\..\..\..\Components\hal\include\"
//        -I "C:\Users\8470p\Desktop\Z-Stack Mesh 1.0.0
//        ZED\Projects\zstack\Samples\GenericApp\CC2530DB\..\..\..\..\..\Components\hal\target\CC2530EB\"
//        -I "C:\Users\8470p\Desktop\Z-Stack Mesh 1.0.0
//        ZED\Projects\zstack\Samples\GenericApp\CC2530DB\..\..\..\..\..\Components\mac\include\"
//        -I "C:\Users\8470p\Desktop\Z-Stack Mesh 1.0.0
//        ZED\Projects\zstack\Samples\GenericApp\CC2530DB\..\..\..\..\..\Components\mac\high_level\"
//        -I "C:\Users\8470p\Desktop\Z-Stack Mesh 1.0.0
//        ZED\Projects\zstack\Samples\GenericApp\CC2530DB\..\..\..\..\..\Components\mac\low_level\srf04\"
//        -I "C:\Users\8470p\Desktop\Z-Stack Mesh 1.0.0
//        ZED\Projects\zstack\Samples\GenericApp\CC2530DB\..\..\..\..\..\Components\mac\low_level\srf04\single_chip\"
//        -I "C:\Users\8470p\Desktop\Z-Stack Mesh 1.0.0
//        ZED\Projects\zstack\Samples\GenericApp\CC2530DB\..\..\..\..\..\Components\mt\"
//        -I "C:\Users\8470p\Desktop\Z-Stack Mesh 1.0.0
//        ZED\Projects\zstack\Samples\GenericApp\CC2530DB\..\..\..\..\..\Components\osal\include\"
//        -I "C:\Users\8470p\Desktop\Z-Stack Mesh 1.0.0
//        ZED\Projects\zstack\Samples\GenericApp\CC2530DB\..\..\..\..\..\Components\services\saddr\"
//        -I "C:\Users\8470p\Desktop\Z-Stack Mesh 1.0.0
//        ZED\Projects\zstack\Samples\GenericApp\CC2530DB\..\..\..\..\..\Components\services\sdata\"
//        -I "C:\Users\8470p\Desktop\Z-Stack Mesh 1.0.0
//        ZED\Projects\zstack\Samples\GenericApp\CC2530DB\..\..\..\..\..\Components\stack\af\"
//        -I "C:\Users\8470p\Desktop\Z-Stack Mesh 1.0.0
//        ZED\Projects\zstack\Samples\GenericApp\CC2530DB\..\..\..\..\..\Components\stack\nwk\"
//        -I "C:\Users\8470p\Desktop\Z-Stack Mesh 1.0.0
//        ZED\Projects\zstack\Samples\GenericApp\CC2530DB\..\..\..\..\..\Components\stack\sapi\"
//        -I "C:\Users\8470p\Desktop\Z-Stack Mesh 1.0.0
//        ZED\Projects\zstack\Samples\GenericApp\CC2530DB\..\..\..\..\..\Components\stack\sec\"
//        -I "C:\Users\8470p\Desktop\Z-Stack Mesh 1.0.0
//        ZED\Projects\zstack\Samples\GenericApp\CC2530DB\..\..\..\..\..\Components\stack\sys\"
//        -I "C:\Users\8470p\Desktop\Z-Stack Mesh 1.0.0
//        ZED\Projects\zstack\Samples\GenericApp\CC2530DB\..\..\..\..\..\Components\stack\zdo\"
//        -I "C:\Users\8470p\Desktop\Z-Stack Mesh 1.0.0
//        ZED\Projects\zstack\Samples\GenericApp\CC2530DB\..\..\..\..\..\Components\zmac\"
//        -I "C:\Users\8470p\Desktop\Z-Stack Mesh 1.0.0
//        ZED\Projects\zstack\Samples\GenericApp\CC2530DB\..\..\..\..\..\Components\zmac\f8w\"
//        -Ohz --require_prototypes
//    List file          =  
//        C:\Users\8470p\Desktop\Z-Stack Mesh 1.0.0
//        ZED\Projects\zstack\Samples\GenericApp\CC2530DB\EndDeviceEB-SBL\List\GenericApp.s51
//
///////////////////////////////////////////////////////////////////////////////

        NAME GenericApp

        RTMODEL "__SystemLibrary", "CLib"
        RTMODEL "__calling_convention", "xdata_reentrant"
        RTMODEL "__code_model", "banked"
        RTMODEL "__core", "plain"
        RTMODEL "__data_model", "large"
        RTMODEL "__dptr_size", "16"
        RTMODEL "__extended_stack", "disabled"
        RTMODEL "__iar_require _formatted_write", "floats,widths"
        RTMODEL "__location_for_constants", "data"
        RTMODEL "__number_of_dptrs", "1"
        RTMODEL "__rt_version", "1"

        RSEG DOVERLAY:DATA:NOROOT(0)
        RSEG IOVERLAY:IDATA:NOROOT(0)
        RSEG ISTACK:IDATA:NOROOT(0)
        RSEG PSTACK:XDATA:NOROOT(0)
        RSEG XSTACK:XDATA:NOROOT(0)

        EXTERN ?V0
        EXTERN ?V1
        EXTERN ?V2
        EXTERN ?V3
        EXTERN ?ALLOC_XSTACK8
        EXTERN ?BANKED_ENTER_XDATA
        EXTERN ?BANKED_LEAVE_XDATA
        EXTERN ?BDISPATCH
        EXTERN ?BRET
        EXTERN ?DEALLOC_XSTACK8
        EXTERN ?L_MOV_TO_X
        EXTERN ?L_MOV_X
        EXTERN ?PUSH_XSTACK8_X_FOUR
        EXTERN ?PUSH_XSTACK_I_ONE
        EXTERN ?PUSH_XSTACK_I_TWO
        EXTERN ?UL_GT_X
        EXTERN ?UL_SHR
        EXTERN ?US_SWITCH_SPARSE
        EXTERN ?XSP
        EXTERN ?XSTACK_DISP0_8
        EXTERN ?XSTACK_DISP100_8
        EXTERN ?XSTACK_DISP101_8
        EXTERN __INIT_XDATA_I
        EXTERN __INIT_XDATA_Z

        FUNCTION `??GenericApp_HandleKeys::?relay`,0203H
        PUBLIC `??GenericApp_Init::?relay`
        FUNCTION `??GenericApp_Init::?relay`,0203H
        PUBLIC `??GenericApp_ProcessEvent::?relay`
        FUNCTION `??GenericApp_ProcessEvent::?relay`,0203H
        FUNCTION `??GenericApp_ProcessZDOMsgs::?relay`,0203H
        FUNCTION `??GenericApp_SendTheMessage::?relay`,0203H
        FUNCTION `??uart_callback::?relay`,0203H
        PUBLIC GenericApp_ClusterList
        PUBLIC GenericApp_DstAddr
        FUNCTION GenericApp_HandleKeys,0a1203H
        ARGFRAME XSTACK, 12, STACK
        ARGFRAME IOVERLAY, 0, STATIC
        ARGFRAME DOVERLAY, 0, STATIC
        LOCFRAME XSTACK, 30, STACK
        PUBLIC GenericApp_Init
        FUNCTION GenericApp_Init,021203H
        ARGFRAME XSTACK, 0, STACK
        LOCFRAME XSTACK, 38, STACK
        PUBLIC GenericApp_NwkState
        PUBLIC GenericApp_ProcessEvent
        FUNCTION GenericApp_ProcessEvent,0a1203H
        ARGFRAME XSTACK, 0, STACK
        LOCFRAME XSTACK, 16, STACK
        FUNCTION GenericApp_ProcessZDOMsgs,0a1203H
        ARGFRAME XSTACK, 12, STACK
        ARGFRAME IOVERLAY, 0, STATIC
        ARGFRAME DOVERLAY, 0, STATIC
        LOCFRAME XSTACK, 21, STACK
        FUNCTION GenericApp_SendTheMessage,0a1203H
        ARGFRAME XSTACK, 12, STACK
        ARGFRAME IOVERLAY, 0, STATIC
        ARGFRAME DOVERLAY, 0, STATIC
        LOCFRAME XSTACK, 115, STACK
        PUBLIC GenericApp_SimpleDesc
        PUBLIC GenericApp_TaskID
        PUBLIC GenericApp_TransID
        PUBLIC GenericApp_epDesc
        PUBWEAK __Constant_65
        FUNCTION uart_callback,0603H
        ARGFRAME XSTACK, 0, STACK
        
          CFI Names cfiNames0
          CFI StackFrame CFA_SP SP IDATA
          CFI StackFrame CFA_PSP16 PSP16 XDATA
          CFI StackFrame CFA_XSP16 XSP16 XDATA
          CFI StaticOverlayFrame CFA_IOVERLAY IOVERLAY
          CFI StaticOverlayFrame CFA_DOVERLAY DOVERLAY
          CFI Resource `PSW.CY`:1, `B.BR0`:1, `B.BR1`:1, `B.BR2`:1, `B.BR3`:1
          CFI Resource `B.BR4`:1, `B.BR5`:1, `B.BR6`:1, `B.BR7`:1, `VB.BR8`:1
          CFI Resource `VB.BR9`:1, `VB.BR10`:1, `VB.BR11`:1, `VB.BR12`:1
          CFI Resource `VB.BR13`:1, `VB.BR14`:1, `VB.BR15`:1, VB:8, B:8, A:8
          CFI Resource PSW:8, DPL0:8, DPH0:8, R0:8, R1:8, R2:8, R3:8, R4:8, R5:8
          CFI Resource R6:8, R7:8, V0:8, V1:8, V2:8, V3:8, V4:8, V5:8, V6:8, V7:8
          CFI Resource V8:8, V9:8, V10:8, V11:8, V12:8, V13:8, V14:8, V15:8, SP:8
          CFI Resource PSPH:8, PSPL:8, PSP16:16, XSPH:8, XSPL:8, XSP16:16
          CFI VirtualResource ?RET:24
          CFI Resource ?BRET_EXT:8
          CFI VirtualResource ?RET_HIGH:8, ?RET_LOW:8
          CFI ResourceParts PSP16 PSPH, PSPL
          CFI ResourceParts XSP16 XSPH, XSPL
          CFI ResourceParts ?RET ?BRET_EXT, ?RET_HIGH, ?RET_LOW
          CFI EndNames cfiNames0
        
          CFI Common cfiCommon0 Using cfiNames0
          CFI CodeAlign 1
          CFI DataAlign -1
          CFI ReturnAddress ?RET CODE
          CFI CFA_DOVERLAY Used
          CFI CFA_IOVERLAY Used
          CFI CFA_SP SP+-3
          CFI CFA_PSP16 PSP16+0
          CFI CFA_XSP16 XSP16+0
          CFI `PSW.CY` SameValue
          CFI `B.BR0` SameValue
          CFI `B.BR1` SameValue
          CFI `B.BR2` SameValue
          CFI `B.BR3` SameValue
          CFI `B.BR4` SameValue
          CFI `B.BR5` SameValue
          CFI `B.BR6` SameValue
          CFI `B.BR7` SameValue
          CFI `VB.BR8` SameValue
          CFI `VB.BR9` SameValue
          CFI `VB.BR10` SameValue
          CFI `VB.BR11` SameValue
          CFI `VB.BR12` SameValue
          CFI `VB.BR13` SameValue
          CFI `VB.BR14` SameValue
          CFI `VB.BR15` SameValue
          CFI VB SameValue
          CFI B Undefined
          CFI A Undefined
          CFI PSW SameValue
          CFI DPL0 SameValue
          CFI DPH0 SameValue
          CFI R0 Undefined
          CFI R1 Undefined
          CFI R2 Undefined
          CFI R3 Undefined
          CFI R4 Undefined
          CFI R5 Undefined
          CFI R6 SameValue
          CFI R7 SameValue
          CFI V0 SameValue
          CFI V1 SameValue
          CFI V2 SameValue
          CFI V3 SameValue
          CFI V4 SameValue
          CFI V5 SameValue
          CFI V6 SameValue
          CFI V7 SameValue
          CFI V8 SameValue
          CFI V9 SameValue
          CFI V10 SameValue
          CFI V11 SameValue
          CFI V12 SameValue
          CFI V13 SameValue
          CFI V14 SameValue
          CFI V15 SameValue
          CFI PSPH Undefined
          CFI PSPL Undefined
          CFI XSPH Undefined
          CFI XSPL Undefined
          CFI ?RET Concat
          CFI ?BRET_EXT Frame(CFA_SP, 3)
          CFI ?RET_HIGH Frame(CFA_SP, 2)
          CFI ?RET_LOW Frame(CFA_SP, 1)
          CFI EndCommon cfiCommon0
        
        
          CFI Common cfiCommon1 Using cfiNames0
          CFI CodeAlign 1
          CFI DataAlign -1
          CFI ReturnAddress ?RET CODE
          CFI CFA_DOVERLAY Used
          CFI CFA_IOVERLAY Used
          CFI CFA_SP SP+-2
          CFI CFA_PSP16 PSP16+0
          CFI CFA_XSP16 XSP16+0
          CFI `PSW.CY` SameValue
          CFI `B.BR0` SameValue
          CFI `B.BR1` SameValue
          CFI `B.BR2` SameValue
          CFI `B.BR3` SameValue
          CFI `B.BR4` SameValue
          CFI `B.BR5` SameValue
          CFI `B.BR6` SameValue
          CFI `B.BR7` SameValue
          CFI `VB.BR8` SameValue
          CFI `VB.BR9` SameValue
          CFI `VB.BR10` SameValue
          CFI `VB.BR11` SameValue
          CFI `VB.BR12` SameValue
          CFI `VB.BR13` SameValue
          CFI `VB.BR14` SameValue
          CFI `VB.BR15` SameValue
          CFI VB SameValue
          CFI B SameValue
          CFI A SameValue
          CFI PSW SameValue
          CFI DPL0 SameValue
          CFI DPH0 SameValue
          CFI R0 SameValue
          CFI R1 SameValue
          CFI R2 SameValue
          CFI R3 SameValue
          CFI R4 SameValue
          CFI R5 SameValue
          CFI R6 SameValue
          CFI R7 SameValue
          CFI V0 SameValue
          CFI V1 SameValue
          CFI V2 SameValue
          CFI V3 SameValue
          CFI V4 SameValue
          CFI V5 SameValue
          CFI V6 SameValue
          CFI V7 SameValue
          CFI V8 SameValue
          CFI V9 SameValue
          CFI V10 SameValue
          CFI V11 SameValue
          CFI V12 SameValue
          CFI V13 SameValue
          CFI V14 SameValue
          CFI V15 SameValue
          CFI PSPH Undefined
          CFI PSPL Undefined
          CFI XSPH Undefined
          CFI XSPL Undefined
          CFI ?RET Concat
          CFI ?BRET_EXT SameValue
          CFI ?RET_HIGH Frame(CFA_SP, 2)
          CFI ?RET_LOW Frame(CFA_SP, 1)
          CFI EndCommon cfiCommon1
        
AF_DataRequest      SYMBOL "AF_DataRequest"
`??AF_DataRequest::?relay` SYMBOL "?relay", AF_DataRequest
HalLcdWriteString   SYMBOL "HalLcdWriteString"
`??HalLcdWriteString::?relay` SYMBOL "?relay", HalLcdWriteString
HalLcdWriteStringValue SYMBOL "HalLcdWriteStringValue"
`??HalLcdWriteStringValue::?relay` SYMBOL "?relay", HalLcdWriteStringValue
HalLedSet           SYMBOL "HalLedSet"
`??HalLedSet::?relay` SYMBOL "?relay", HalLedSet
HalUARTInit         SYMBOL "HalUARTInit"
`??HalUARTInit::?relay` SYMBOL "?relay", HalUARTInit
HalUARTOpen         SYMBOL "HalUARTOpen"
`??HalUARTOpen::?relay` SYMBOL "?relay", HalUARTOpen
NLME_GetShortAddr   SYMBOL "NLME_GetShortAddr"
`??NLME_GetShortAddr::?relay` SYMBOL "?relay", NLME_GetShortAddr
RegisterForKeys     SYMBOL "RegisterForKeys"
`??RegisterForKeys::?relay` SYMBOL "?relay", RegisterForKeys
ZDO_ParseDeviceAnnce SYMBOL "ZDO_ParseDeviceAnnce"
`??ZDO_ParseDeviceAnnce::?relay` SYMBOL "?relay", ZDO_ParseDeviceAnnce
ZDO_ParseEPListRsp  SYMBOL "ZDO_ParseEPListRsp"
`??ZDO_ParseEPListRsp::?relay` SYMBOL "?relay", ZDO_ParseEPListRsp
ZDO_RegisterForZDOMsg SYMBOL "ZDO_RegisterForZDOMsg"
`??ZDO_RegisterForZDOMsg::?relay` SYMBOL "?relay", ZDO_RegisterForZDOMsg
ZDP_EndDeviceBindReq SYMBOL "ZDP_EndDeviceBindReq"
`??ZDP_EndDeviceBindReq::?relay` SYMBOL "?relay", ZDP_EndDeviceBindReq
ZDP_MatchDescReq    SYMBOL "ZDP_MatchDescReq"
`??ZDP_MatchDescReq::?relay` SYMBOL "?relay", ZDP_MatchDescReq
afRegister          SYMBOL "afRegister"
`??afRegister::?relay` SYMBOL "?relay", afRegister
get_ieee_string     SYMBOL "get_ieee_string"
`??get_ieee_string::?relay` SYMBOL "?relay", get_ieee_string
osal_mem_free       SYMBOL "osal_mem_free"
`??osal_mem_free::?relay` SYMBOL "?relay", osal_mem_free
osal_msg_deallocate SYMBOL "osal_msg_deallocate"
`??osal_msg_deallocate::?relay` SYMBOL "?relay", osal_msg_deallocate
osal_msg_receive    SYMBOL "osal_msg_receive"
`??osal_msg_receive::?relay` SYMBOL "?relay", osal_msg_receive
osal_start_timerEx  SYMBOL "osal_start_timerEx"
`??osal_start_timerEx::?relay` SYMBOL "?relay", osal_start_timerEx
osal_strlen         SYMBOL "osal_strlen"
`??osal_strlen::?relay` SYMBOL "?relay", osal_strlen
sht_read            SYMBOL "sht_read"
`??sht_read::?relay` SYMBOL "?relay", sht_read
sprintf             SYMBOL "sprintf"
`??sprintf::?relay` SYMBOL "?relay", sprintf
uart_put_byte_array SYMBOL "uart_put_byte_array"
`??uart_put_byte_array::?relay` SYMBOL "?relay", uart_put_byte_array
uart_put_string     SYMBOL "uart_put_string"
`??uart_put_string::?relay` SYMBOL "?relay", uart_put_string
uart_put_string_value SYMBOL "uart_put_string_value"
`??uart_put_string_value::?relay` SYMBOL "?relay", uart_put_string_value
GenericApp_Init     SYMBOL "GenericApp_Init"
`??GenericApp_Init::?relay` SYMBOL "?relay", GenericApp_Init
GenericApp_ProcessEvent SYMBOL "GenericApp_ProcessEvent"
`??GenericApp_ProcessEvent::?relay` SYMBOL "?relay", GenericApp_ProcessEvent

        EXTERN `??AF_DataRequest::?relay`
        FUNCTION `??AF_DataRequest::?relay`,00H
        EXTERN `??HalLcdWriteString::?relay`
        FUNCTION `??HalLcdWriteString::?relay`,00H
        EXTERN `??HalLcdWriteStringValue::?relay`
        FUNCTION `??HalLcdWriteStringValue::?relay`,00H
        EXTERN `??HalLedSet::?relay`
        FUNCTION `??HalLedSet::?relay`,00H
        EXTERN `??HalUARTInit::?relay`
        FUNCTION `??HalUARTInit::?relay`,00H
        EXTERN `??HalUARTOpen::?relay`
        FUNCTION `??HalUARTOpen::?relay`,00H
        EXTERN `??NLME_GetShortAddr::?relay`
        FUNCTION `??NLME_GetShortAddr::?relay`,00H
        EXTERN `??RegisterForKeys::?relay`
        FUNCTION `??RegisterForKeys::?relay`,00H
        EXTERN `??ZDO_ParseDeviceAnnce::?relay`
        FUNCTION `??ZDO_ParseDeviceAnnce::?relay`,00H
        EXTERN `??ZDO_ParseEPListRsp::?relay`
        FUNCTION `??ZDO_ParseEPListRsp::?relay`,00H
        EXTERN `??ZDO_RegisterForZDOMsg::?relay`
        FUNCTION `??ZDO_RegisterForZDOMsg::?relay`,00H
        EXTERN `??ZDP_EndDeviceBindReq::?relay`
        FUNCTION `??ZDP_EndDeviceBindReq::?relay`,00H
        EXTERN `??ZDP_MatchDescReq::?relay`
        FUNCTION `??ZDP_MatchDescReq::?relay`,00H
        EXTERN `??afRegister::?relay`
        FUNCTION `??afRegister::?relay`,00H
        EXTERN `??get_ieee_string::?relay`
        FUNCTION `??get_ieee_string::?relay`,00H
        EXTERN `??osal_mem_free::?relay`
        FUNCTION `??osal_mem_free::?relay`,00H
        EXTERN `??osal_msg_deallocate::?relay`
        FUNCTION `??osal_msg_deallocate::?relay`,00H
        EXTERN `??osal_msg_receive::?relay`
        FUNCTION `??osal_msg_receive::?relay`,00H
        EXTERN `??osal_start_timerEx::?relay`
        FUNCTION `??osal_start_timerEx::?relay`,00H
        EXTERN `??osal_strlen::?relay`
        FUNCTION `??osal_strlen::?relay`,00H
        EXTERN `??sht_read::?relay`
        FUNCTION `??sht_read::?relay`,00H
        EXTERN `??sprintf::?relay`
        FUNCTION `??sprintf::?relay`,00H
        EXTERN `??uart_put_byte_array::?relay`
        FUNCTION `??uart_put_byte_array::?relay`,00H
        EXTERN `??uart_put_string::?relay`
        FUNCTION `??uart_put_string::?relay`,00H
        EXTERN `??uart_put_string_value::?relay`
        FUNCTION `??uart_put_string_value::?relay`,00H
        EXTERN AF_DataRequest
        FUNCTION AF_DataRequest,0202H
        ARGFRAME ISTACK, 0, STACK
        ARGFRAME PSTACK, 0, STACK
        ARGFRAME XSTACK, 114, STACK
        ARGFRAME IOVERLAY, 0, STATIC
        ARGFRAME DOVERLAY, 0, STATIC
        EXTERN HalLcdWriteString
        FUNCTION HalLcdWriteString,0202H
        ARGFRAME ISTACK, 0, STACK
        ARGFRAME PSTACK, 0, STACK
        ARGFRAME XSTACK, 38, STACK
        ARGFRAME IOVERLAY, 0, STATIC
        ARGFRAME DOVERLAY, 0, STATIC
        EXTERN HalLcdWriteStringValue
        FUNCTION HalLcdWriteStringValue,0202H
        ARGFRAME ISTACK, 0, STACK
        ARGFRAME PSTACK, 0, STACK
        ARGFRAME XSTACK, 13, STACK
        ARGFRAME IOVERLAY, 0, STATIC
        ARGFRAME DOVERLAY, 0, STATIC
        EXTERN HalLedSet
        FUNCTION HalLedSet,0202H
        ARGFRAME ISTACK, 0, STACK
        ARGFRAME PSTACK, 0, STACK
        ARGFRAME XSTACK, 21, STACK
        ARGFRAME IOVERLAY, 0, STATIC
        ARGFRAME DOVERLAY, 0, STATIC
        EXTERN HalUARTInit
        FUNCTION HalUARTInit,0202H
        ARGFRAME ISTACK, 0, STACK
        ARGFRAME PSTACK, 0, STACK
        ARGFRAME XSTACK, 38, STACK
        ARGFRAME IOVERLAY, 0, STATIC
        ARGFRAME DOVERLAY, 0, STATIC
        EXTERN HalUARTOpen
        FUNCTION HalUARTOpen,0202H
        ARGFRAME ISTACK, 0, STACK
        ARGFRAME PSTACK, 0, STACK
        ARGFRAME XSTACK, 38, STACK
        ARGFRAME IOVERLAY, 0, STATIC
        ARGFRAME DOVERLAY, 0, STATIC
        EXTERN NLME_GetShortAddr
        FUNCTION NLME_GetShortAddr,0202H
        ARGFRAME ISTACK, 0, STACK
        ARGFRAME PSTACK, 0, STACK
        ARGFRAME XSTACK, 21, STACK
        ARGFRAME IOVERLAY, 0, STATIC
        ARGFRAME DOVERLAY, 0, STATIC
        EXTERN Onboard_soft_reset
        FUNCTION Onboard_soft_reset,0202H
        ARGFRAME ISTACK, 0, STACK
        ARGFRAME PSTACK, 0, STACK
        ARGFRAME XSTACK, 105, STACK
        ARGFRAME IOVERLAY, 0, STATIC
        ARGFRAME DOVERLAY, 0, STATIC
        EXTERN RegisterForKeys
        FUNCTION RegisterForKeys,0202H
        ARGFRAME ISTACK, 0, STACK
        ARGFRAME PSTACK, 0, STACK
        ARGFRAME XSTACK, 38, STACK
        ARGFRAME IOVERLAY, 0, STATIC
        ARGFRAME DOVERLAY, 0, STATIC
        EXTERN ZDO_ParseDeviceAnnce
        FUNCTION ZDO_ParseDeviceAnnce,0202H
        ARGFRAME ISTACK, 0, STACK
        ARGFRAME PSTACK, 0, STACK
        ARGFRAME XSTACK, 21, STACK
        ARGFRAME IOVERLAY, 0, STATIC
        ARGFRAME DOVERLAY, 0, STATIC
        EXTERN ZDO_ParseEPListRsp
        FUNCTION ZDO_ParseEPListRsp,0202H
        ARGFRAME ISTACK, 0, STACK
        ARGFRAME PSTACK, 0, STACK
        ARGFRAME XSTACK, 21, STACK
        ARGFRAME IOVERLAY, 0, STATIC
        ARGFRAME DOVERLAY, 0, STATIC
        EXTERN ZDO_RegisterForZDOMsg
        FUNCTION ZDO_RegisterForZDOMsg,0202H
        ARGFRAME ISTACK, 0, STACK
        ARGFRAME PSTACK, 0, STACK
        ARGFRAME XSTACK, 38, STACK
        ARGFRAME IOVERLAY, 0, STATIC
        ARGFRAME DOVERLAY, 0, STATIC
        EXTERN ZDP_EndDeviceBindReq
        FUNCTION ZDP_EndDeviceBindReq,0202H
        ARGFRAME ISTACK, 0, STACK
        ARGFRAME PSTACK, 0, STACK
        ARGFRAME XSTACK, 30, STACK
        ARGFRAME IOVERLAY, 0, STATIC
        ARGFRAME DOVERLAY, 0, STATIC
        EXTERN ZDP_MatchDescReq
        FUNCTION ZDP_MatchDescReq,0202H
        ARGFRAME ISTACK, 0, STACK
        ARGFRAME PSTACK, 0, STACK
        ARGFRAME XSTACK, 29, STACK
        ARGFRAME IOVERLAY, 0, STATIC
        ARGFRAME DOVERLAY, 0, STATIC
        EXTERN afRegister
        FUNCTION afRegister,0202H
        ARGFRAME ISTACK, 0, STACK
        ARGFRAME PSTACK, 0, STACK
        ARGFRAME XSTACK, 38, STACK
        ARGFRAME IOVERLAY, 0, STATIC
        ARGFRAME DOVERLAY, 0, STATIC
        EXTERN get_ieee_string
        FUNCTION get_ieee_string,0202H
        ARGFRAME ISTACK, 0, STACK
        ARGFRAME PSTACK, 0, STACK
        ARGFRAME XSTACK, 105, STACK
        ARGFRAME IOVERLAY, 0, STATIC
        ARGFRAME DOVERLAY, 0, STATIC
        EXTERN osal_mem_free
        FUNCTION osal_mem_free,0202H
        ARGFRAME ISTACK, 0, STACK
        ARGFRAME PSTACK, 0, STACK
        ARGFRAME XSTACK, 21, STACK
        ARGFRAME IOVERLAY, 0, STATIC
        ARGFRAME DOVERLAY, 0, STATIC
        EXTERN osal_msg_deallocate
        FUNCTION osal_msg_deallocate,0202H
        ARGFRAME ISTACK, 0, STACK
        ARGFRAME PSTACK, 0, STACK
        ARGFRAME XSTACK, 12, STACK
        ARGFRAME IOVERLAY, 0, STATIC
        ARGFRAME DOVERLAY, 0, STATIC
        EXTERN osal_msg_receive
        FUNCTION osal_msg_receive,0202H
        ARGFRAME ISTACK, 0, STACK
        ARGFRAME PSTACK, 0, STACK
        ARGFRAME XSTACK, 12, STACK
        ARGFRAME IOVERLAY, 0, STATIC
        ARGFRAME DOVERLAY, 0, STATIC
        EXTERN osal_start_timerEx
        FUNCTION osal_start_timerEx,0202H
        ARGFRAME ISTACK, 0, STACK
        ARGFRAME PSTACK, 0, STACK
        ARGFRAME XSTACK, 16, STACK
        ARGFRAME IOVERLAY, 0, STATIC
        ARGFRAME DOVERLAY, 0, STATIC
        EXTERN osal_strlen
        FUNCTION osal_strlen,0202H
        ARGFRAME ISTACK, 0, STACK
        ARGFRAME PSTACK, 0, STACK
        ARGFRAME XSTACK, 105, STACK
        ARGFRAME IOVERLAY, 0, STATIC
        ARGFRAME DOVERLAY, 0, STATIC
        EXTERN sht_read
        FUNCTION sht_read,0202H
        ARGFRAME ISTACK, 0, STACK
        ARGFRAME PSTACK, 0, STACK
        ARGFRAME XSTACK, 105, STACK
        ARGFRAME IOVERLAY, 0, STATIC
        ARGFRAME DOVERLAY, 0, STATIC
        EXTERN sprintf
        FUNCTION sprintf,0202H
        ARGFRAME ISTACK, 0, STACK
        ARGFRAME PSTACK, 0, STACK
        ARGFRAME XSTACK, 115, STACK
        ARGFRAME IOVERLAY, 0, STATIC
        ARGFRAME DOVERLAY, 0, STATIC
        EXTERN uart_put_byte_array
        FUNCTION uart_put_byte_array,0202H
        ARGFRAME ISTACK, 0, STACK
        ARGFRAME PSTACK, 0, STACK
        ARGFRAME XSTACK, 21, STACK
        ARGFRAME IOVERLAY, 0, STATIC
        ARGFRAME DOVERLAY, 0, STATIC
        EXTERN uart_put_string
        FUNCTION uart_put_string,0202H
        ARGFRAME ISTACK, 0, STACK
        ARGFRAME PSTACK, 0, STACK
        ARGFRAME XSTACK, 105, STACK
        ARGFRAME IOVERLAY, 0, STATIC
        ARGFRAME DOVERLAY, 0, STATIC
        EXTERN uart_put_string_value
        FUNCTION uart_put_string_value,0202H
        ARGFRAME ISTACK, 0, STACK
        ARGFRAME PSTACK, 0, STACK
        ARGFRAME XSTACK, 105, STACK
        ARGFRAME IOVERLAY, 0, STATIC
        ARGFRAME DOVERLAY, 0, STATIC

// C:\Users\8470p\Desktop\Z-Stack Mesh 1.0.0 ZED\Projects\zstack\Samples\GenericApp\Source\GenericApp.c
//    1 /******************************************************************************
//    2   Filename:       GenericApp.c
//    3   Revised:        $Date: 2014-09-07 13:36:30 -0700 (Sun, 07 Sep 2014) $
//    4   Revision:       $Revision: 40046 $
//    5 
//    6   Description:    Generic Application (no Profile).
//    7 
//    8 
//    9   Copyright 2004-2014 Texas Instruments Incorporated. All rights reserved.
//   10 
//   11   IMPORTANT: Your use of this Software is limited to those specific rights
//   12   granted under the terms of a software license agreement between the user
//   13   who downloaded the software, his/her employer (which must be your employer)
//   14   and Texas Instruments Incorporated (the "License"). You may not use this
//   15   Software unless you agree to abide by the terms of the License. The License
//   16   limits your use, and you acknowledge, that the Software may not be modified,
//   17   copied or distributed unless embedded on a Texas Instruments microcontroller
//   18   or used solely and exclusively in conjunction with a Texas Instruments radio
//   19   frequency transceiver, which is integrated into your product. Other than for
//   20   the foregoing purpose, you may not use, reproduce, copy, prepare derivative
//   21   works of, modify, distribute, perform, display or sell this Software and/or
//   22   its documentation for any purpose.
//   23 
//   24   YOU FURTHER ACKNOWLEDGE AND AGREE THAT THE SOFTWARE AND DOCUMENTATION ARE
//   25   PROVIDED “AS IS” WITHOUT WARRANTY OF ANY KIND, EITHER EXPRESS OR IMPLIED,
//   26   INCLUDING WITHOUT LIMITATION, ANY WARRANTY OF MERCHANTABILITY, TITLE,
//   27   NON-INFRINGEMENT AND FITNESS FOR A PARTICULAR PURPOSE. IN NO EVENT SHALL
//   28   TEXAS INSTRUMENTS OR ITS LICENSORS BE LIABLE OR OBLIGATED UNDER CONTRACT,
//   29   NEGLIGENCE, STRICT LIABILITY, CONTRIBUTION, BREACH OF WARRANTY, OR OTHER
//   30   LEGAL EQUITABLE THEORY ANY DIRECT OR INDIRECT DAMAGES OR EXPENSES
//   31   INCLUDING BUT NOT LIMITED TO ANY INCIDENTAL, SPECIAL, INDIRECT, PUNITIVE
//   32   OR CONSEQUENTIAL DAMAGES, LOST PROFITS OR LOST DATA, COST OF PROCUREMENT
//   33   OF SUBSTITUTE GOODS, TECHNOLOGY, SERVICES, OR ANY CLAIMS BY THIRD PARTIES
//   34   (INCLUDING BUT NOT LIMITED TO ANY DEFENSE THEREOF), OR OTHER SIMILAR COSTS.
//   35 
//   36   Should you have any questions regarding your right to use this Software,
//   37   contact Texas Instruments Incorporated at www.TI.com.
//   38 ******************************************************************************/
//   39 
//   40 /*********************************************************************
//   41   This application isn't intended to do anything useful - it is
//   42   intended to be a simple example of an application's structure.
//   43 
//   44   This application periodically sends a "Hello World" message to
//   45   another "Generic" application (see 'txMsgDelay'). The application
//   46   will also receive "Hello World" packets.
//   47 
//   48   This application doesn't have a profile, so it handles everything
//   49   directly - by itself.
//   50 
//   51   Key control:
//   52     SW1:  changes the delay between TX packets
//   53     SW2:  initiates end device binding
//   54     SW3:
//   55     SW4:  initiates a match description request
//   56 *********************************************************************/
//   57 
//   58 /*********************************************************************
//   59  * INCLUDES
//   60  */
//   61 #include "OSAL.h"
//   62 #include "AF.h"
//   63 #include "ZDApp.h"
//   64 #include "ZDObject.h"
//   65 #include "ZDProfile.h"
//   66 
//   67 #include "GenericApp.h"
//   68 #include "DebugTrace.h"
//   69 #include "gpio.h"
//   70 #if !defined( WIN32 ) || defined( ZBIT )
//   71   #include "OnBoard.h"
//   72 #endif
//   73 
//   74 /* HAL */
//   75 #include "hal_lcd.h"
//   76 #include "hal_led.h"
//   77 #include "hal_key.h"
//   78 #include "hal_uart.h"
//   79 #include "debug.h"
//   80 #include "common.h"
//   81 /* RTOS */
//   82 #if defined( IAR_ARMCM3_LM )
//   83 #include "RTOS_App.h"
//   84 #endif
//   85 
//   86 /*********************************************************************
//   87  * MACROS
//   88  */
//   89 
//   90 /*********************************************************************
//   91  * CONSTANTS
//   92  */
//   93 
//   94 /*********************************************************************
//   95  * TYPEDEFS
//   96  */
//   97 
//   98 /*********************************************************************
//   99  * GLOBAL VARIABLES
//  100  */
//  101 // This list should be filled with Application specific Cluster IDs.

        RSEG XDATA_ROM_C:CONST:REORDER:NOROOT(0)
        DATA16
//  102 const cId_t GenericApp_ClusterList[GENERICAPP_MAX_CLUSTERS] =
GenericApp_ClusterList:
        DW 1
//  103 {
//  104   GENERICAPP_CLUSTERID
//  105 };
//  106 

        RSEG XDATA_ROM_C:CONST:REORDER:NOROOT(0)
        DATA8
//  107 const SimpleDescriptionFormat_t GenericApp_SimpleDesc =
GenericApp_SimpleDesc:
        DB 10
        DATA16
        DW 3844
        DW 1
        DATA8
        DB 0
        DB 1
        DATA16
        DW GenericApp_ClusterList
        DATA8
        DB 1
        DATA16
        DW GenericApp_ClusterList
//  108 {
//  109   GENERICAPP_ENDPOINT,              //  int Endpoint;
//  110   GENERICAPP_PROFID,                //  uint16 AppProfId[2];
//  111   GENERICAPP_DEVICEID,              //  uint16 AppDeviceId[2];
//  112   GENERICAPP_DEVICE_VERSION,        //  int   AppDevVer:4;
//  113   GENERICAPP_FLAGS,                 //  int   AppFlags:4;
//  114   GENERICAPP_MAX_CLUSTERS,          //  byte  AppNumInClusters;
//  115   (cId_t *)GenericApp_ClusterList,  //  byte *pAppInClusterList;
//  116   GENERICAPP_MAX_CLUSTERS,          //  byte  AppNumInClusters;
//  117   (cId_t *)GenericApp_ClusterList   //  byte *pAppInClusterList;
//  118 };
//  119 
//  120 // This is the Endpoint/Interface description.  It is defined here, but
//  121 // filled-in in GenericApp_Init().  Another way to go would be to fill
//  122 // in the structure here and make it a "const" (in code space).  The
//  123 // way it's defined in this sample app it is define in RAM.

        RSEG XDATA_Z:XDATA:NOROOT(0)
        DATA8
//  124 endPointDesc_t GenericApp_epDesc;
GenericApp_epDesc:
        DS 6
        REQUIRE __INIT_XDATA_Z
//  125 
//  126 /*********************************************************************
//  127  * EXTERNAL VARIABLES
//  128  */
//  129 
//  130 /*********************************************************************
//  131  * EXTERNAL FUNCTIONS
//  132  */
//  133 
//  134 /*********************************************************************
//  135  * LOCAL VARIABLES
//  136  */

        RSEG XDATA_Z:XDATA:NOROOT(0)
        DATA8
//  137 byte GenericApp_TaskID;   // Task ID for internal task/event processing
GenericApp_TaskID:
        DS 1
        REQUIRE __INIT_XDATA_Z
//  138                           // This variable will be received when
//  139                           // GenericApp_Init() is called.
//  140 

        RSEG XDATA_Z:XDATA:NOROOT(0)
        DATA8
//  141 devStates_t GenericApp_NwkState;
GenericApp_NwkState:
        DS 1
        REQUIRE __INIT_XDATA_Z
//  142 

        RSEG XDATA_Z:XDATA:NOROOT(0)
        DATA8
//  143 byte GenericApp_TransID;  // This is the unique message ID (counter)
GenericApp_TransID:
        DS 1
        REQUIRE __INIT_XDATA_Z
//  144 

        RSEG XDATA_Z:XDATA:NOROOT(0)
        DATA8
//  145 afAddrType_t GenericApp_DstAddr;
GenericApp_DstAddr:
        DS 12
        REQUIRE __INIT_XDATA_Z
//  146 
//  147 // Number of recieved messages

        RSEG XDATA_Z:XDATA:NOROOT(0)
        DATA16
//  148 static uint16 rxMsgCount;
rxMsgCount:
        DS 2
        REQUIRE __INIT_XDATA_Z
//  149 
//  150 // Time interval between sending messages

        RSEG XDATA_I:XDATA:NOROOT(0)
//  151 static uint32 txMsgDelay = GENERICAPP_SEND_MSG_TIMEOUT;
txMsgDelay:
        DATA32
        DS 4
        REQUIRE `?<Initializer for txMsgDelay>`
        REQUIRE __INIT_XDATA_I
//  152 
//  153 /*********************************************************************
//  154  * LOCAL FUNCTIONS
//  155  */
//  156 static void GenericApp_ProcessZDOMsgs( zdoIncomingMsg_t *inMsg );
//  157 static void GenericApp_HandleKeys( byte shift, byte keys );
//  158 static void GenericApp_MessageMSGCB( afIncomingMSGPacket_t *pckt );
//  159 static void GenericApp_SendTheMessage( void );
//  160 
//  161 #if defined( IAR_ARMCM3_LM )
//  162 static void GenericApp_ProcessRtosMessage( void );
//  163 #endif
//  164 
//  165 /*********************************************************************
//  166  * NETWORK LAYER CALLBACKS
//  167  */
//  168 
//  169 /*********************************************************************
//  170  * PUBLIC FUNCTIONS
//  171  */
//  172 //UART Init

        RSEG BANKED_CODE:CODE:NOROOT(0)
//  173 static void uart_callback(uint8 port, uint8 event)
uart_callback:
          CFI Block cfiBlock0 Using cfiCommon0
          CFI Function uart_callback
        CODE
//  174 {
        ; Saved register size: 0
        ; Auto size: 0
//  175 	
//  176 }
        LJMP    ?BRET
          CFI EndBlock cfiBlock0
//  177 static void quannv15_UartInit(void)
//  178 {
//  179   halUARTCfg_t uartConfig;
//  180   
//  181   //Define config
//  182   uartConfig.configured           = true;
//  183   uartConfig.baudRate             = HAL_UART_BR_115200;         // Baudrate
//  184   uartConfig.flowControl          = FALSE;                      // Delete flowcontrol
//  185   uartConfig.flowControlThreshold = NULL;
//  186   uartConfig.rx.maxBufSize        = 128;
//  187   uartConfig.tx.maxBufSize        = 128;
//  188   uartConfig.idleTimeout          = NULL;                       // Time out 6ms/ 1 char
//  189   uartConfig.callBackFunc         = uart_callback;              // Time cback
//  190   uartConfig.intEnable            = FALSE;                      // Delete interrupt
//  191   
//  192   HalUARTInit();
//  193   HalUARTOpen( HAL_UART_PORT_0, &uartConfig);                   // Open Port 0 
//  194   DBG_PRINTF(FIRMWARE_DESIGNER);
//  195 }
//  196 /*********************************************************************
//  197  * @fn      GenericApp_Init
//  198  *
//  199  * @brief   Initialization function for the Generic App Task.
//  200  *          This is called during initialization and should contain
//  201  *          any application specific initialization (ie. hardware
//  202  *          initialization/setup, table initialization, power up
//  203  *          notificaiton ... ).
//  204  *
//  205  * @param   task_id - the ID assigned by OSAL.  This ID should be
//  206  *                    used to send messages and set timers.
//  207  *
//  208  * @return  none
//  209  */

        RSEG BANKED_CODE:CODE:NOROOT(0)
//  210 void GenericApp_Init( uint8 task_id )
GenericApp_Init:
          CFI Block cfiBlock1 Using cfiCommon0
          CFI Function GenericApp_Init
        CODE
//  211 {
        FUNCALL GenericApp_Init, afRegister
        LOCFRAME ISTACK, 0, STACK
        LOCFRAME PSTACK, 0, STACK
        LOCFRAME XSTACK, 38, STACK
        LOCFRAME IOVERLAY, 0, STATIC
        LOCFRAME DOVERLAY, 0, STATIC
        ARGFRAME ISTACK, 0, STACK
        ARGFRAME PSTACK, 0, STACK
        ARGFRAME XSTACK, 38, STACK
        ARGFRAME IOVERLAY, 0, STATIC
        ARGFRAME DOVERLAY, 0, STATIC
        FUNCALL GenericApp_Init, RegisterForKeys
        LOCFRAME ISTACK, 0, STACK
        LOCFRAME PSTACK, 0, STACK
        LOCFRAME XSTACK, 38, STACK
        LOCFRAME IOVERLAY, 0, STATIC
        LOCFRAME DOVERLAY, 0, STATIC
        ARGFRAME ISTACK, 0, STACK
        ARGFRAME PSTACK, 0, STACK
        ARGFRAME XSTACK, 38, STACK
        ARGFRAME IOVERLAY, 0, STATIC
        ARGFRAME DOVERLAY, 0, STATIC
        FUNCALL GenericApp_Init, HalLcdWriteString
        LOCFRAME ISTACK, 0, STACK
        LOCFRAME PSTACK, 0, STACK
        LOCFRAME XSTACK, 38, STACK
        LOCFRAME IOVERLAY, 0, STATIC
        LOCFRAME DOVERLAY, 0, STATIC
        ARGFRAME ISTACK, 0, STACK
        ARGFRAME PSTACK, 0, STACK
        ARGFRAME XSTACK, 38, STACK
        ARGFRAME IOVERLAY, 0, STATIC
        ARGFRAME DOVERLAY, 0, STATIC
        FUNCALL GenericApp_Init, ZDO_RegisterForZDOMsg
        LOCFRAME ISTACK, 0, STACK
        LOCFRAME PSTACK, 0, STACK
        LOCFRAME XSTACK, 38, STACK
        LOCFRAME IOVERLAY, 0, STATIC
        LOCFRAME DOVERLAY, 0, STATIC
        ARGFRAME ISTACK, 0, STACK
        ARGFRAME PSTACK, 0, STACK
        ARGFRAME XSTACK, 38, STACK
        ARGFRAME IOVERLAY, 0, STATIC
        ARGFRAME DOVERLAY, 0, STATIC
        FUNCALL GenericApp_Init, ZDO_RegisterForZDOMsg
        LOCFRAME ISTACK, 0, STACK
        LOCFRAME PSTACK, 0, STACK
        LOCFRAME XSTACK, 38, STACK
        LOCFRAME IOVERLAY, 0, STATIC
        LOCFRAME DOVERLAY, 0, STATIC
        ARGFRAME ISTACK, 0, STACK
        ARGFRAME PSTACK, 0, STACK
        ARGFRAME XSTACK, 38, STACK
        ARGFRAME IOVERLAY, 0, STATIC
        ARGFRAME DOVERLAY, 0, STATIC
        FUNCALL GenericApp_Init, ZDO_RegisterForZDOMsg
        LOCFRAME ISTACK, 0, STACK
        LOCFRAME PSTACK, 0, STACK
        LOCFRAME XSTACK, 38, STACK
        LOCFRAME IOVERLAY, 0, STATIC
        LOCFRAME DOVERLAY, 0, STATIC
        ARGFRAME ISTACK, 0, STACK
        ARGFRAME PSTACK, 0, STACK
        ARGFRAME XSTACK, 38, STACK
        ARGFRAME IOVERLAY, 0, STATIC
        ARGFRAME DOVERLAY, 0, STATIC
        FUNCALL GenericApp_Init, HalUARTInit
        LOCFRAME ISTACK, 0, STACK
        LOCFRAME PSTACK, 0, STACK
        LOCFRAME XSTACK, 38, STACK
        LOCFRAME IOVERLAY, 0, STATIC
        LOCFRAME DOVERLAY, 0, STATIC
        ARGFRAME ISTACK, 0, STACK
        ARGFRAME PSTACK, 0, STACK
        ARGFRAME XSTACK, 38, STACK
        ARGFRAME IOVERLAY, 0, STATIC
        ARGFRAME DOVERLAY, 0, STATIC
        FUNCALL GenericApp_Init, HalUARTOpen
        LOCFRAME ISTACK, 0, STACK
        LOCFRAME PSTACK, 0, STACK
        LOCFRAME XSTACK, 38, STACK
        LOCFRAME IOVERLAY, 0, STATIC
        LOCFRAME DOVERLAY, 0, STATIC
        ARGFRAME ISTACK, 0, STACK
        ARGFRAME PSTACK, 0, STACK
        ARGFRAME XSTACK, 38, STACK
        ARGFRAME IOVERLAY, 0, STATIC
        ARGFRAME DOVERLAY, 0, STATIC
        FUNCALL GenericApp_Init, uart_put_string
        LOCFRAME ISTACK, 0, STACK
        LOCFRAME PSTACK, 0, STACK
        LOCFRAME XSTACK, 38, STACK
        LOCFRAME IOVERLAY, 0, STATIC
        LOCFRAME DOVERLAY, 0, STATIC
        ARGFRAME ISTACK, 0, STACK
        ARGFRAME PSTACK, 0, STACK
        ARGFRAME XSTACK, 38, STACK
        ARGFRAME IOVERLAY, 0, STATIC
        ARGFRAME DOVERLAY, 0, STATIC
        MOV     A,#-0x9
        LCALL   ?BANKED_ENTER_XDATA
          CFI DPH0 load(1, XDATA, add(CFA_XSP16, literal(-1)))
          CFI DPL0 load(1, XDATA, add(CFA_XSP16, literal(-2)))
          CFI ?BRET_EXT load(1, XDATA, add(CFA_XSP16, literal(-3)))
          CFI ?RET_HIGH load(1, XDATA, add(CFA_XSP16, literal(-4)))
          CFI ?RET_LOW load(1, XDATA, add(CFA_XSP16, literal(-5)))
          CFI R7 load(1, XDATA, add(CFA_XSP16, literal(-6)))
          CFI V0 load(1, XDATA, add(CFA_XSP16, literal(-7)))
          CFI VB load(1, XDATA, add(CFA_XSP16, literal(-8)))
          CFI R6 load(1, XDATA, add(CFA_XSP16, literal(-9)))
          CFI CFA_SP SP+0
          CFI CFA_XSP16 add(XSP16, 9)
        ; Saved register size: 9
        ; Auto size: 29
        MOV     A,#-0x1d
        LCALL   ?ALLOC_XSTACK8
          CFI CFA_XSP16 add(XSP16, 38)
        MOV     A,R1
//  212   GenericApp_TaskID = task_id;
        MOV     DPTR,#GenericApp_TaskID
        MOVX    @DPTR,A
//  213   GenericApp_NwkState = DEV_INIT;
        MOV     DPTR,#GenericApp_NwkState
        MOV     A,#0x1
        MOVX    @DPTR,A
//  214   GenericApp_TransID = 0;
        MOV     DPTR,#GenericApp_TransID
        CLR     A
        MOVX    @DPTR,A
//  215 
//  216   // Device hardware initialization can be added here or in main() (Zmain.c).
//  217   // If the hardware is application specific - add it here.
//  218   // If the hardware is other parts of the device add it in main().
//  219 
//  220   GenericApp_DstAddr.addrMode = (afAddrMode_t)AddrNotPresent;
        MOV     DPTR,#GenericApp_DstAddr + 8
        MOVX    @DPTR,A
//  221   GenericApp_DstAddr.endPoint = 0;
        INC     DPTR
        MOVX    @DPTR,A
//  222   GenericApp_DstAddr.addr.shortAddr = 0;
        MOV     DPTR,#GenericApp_DstAddr
        MOVX    @DPTR,A
        INC     DPTR
        MOVX    @DPTR,A
//  223 
//  224   // Fill out the endpoint description.
//  225   GenericApp_epDesc.endPoint = GENERICAPP_ENDPOINT;
        MOV     DPTR,#GenericApp_epDesc
        MOV     A,#0xa
        MOVX    @DPTR,A
//  226   GenericApp_epDesc.task_id = &GenericApp_TaskID;
        INC     DPTR
        MOV     A,#GenericApp_TaskID & 0xff
        MOVX    @DPTR,A
        INC     DPTR
        MOV     A,#(GenericApp_TaskID >> 8) & 0xff
        MOVX    @DPTR,A
//  227   GenericApp_epDesc.simpleDesc
//  228             = (SimpleDescriptionFormat_t *)&GenericApp_SimpleDesc;
        INC     DPTR
        MOV     A,#GenericApp_SimpleDesc & 0xff
        MOVX    @DPTR,A
        INC     DPTR
        MOV     A,#(GenericApp_SimpleDesc >> 8) & 0xff
        MOVX    @DPTR,A
//  229   GenericApp_epDesc.latencyReq = noLatencyReqs;
        INC     DPTR
        CLR     A
        MOVX    @DPTR,A
//  230 
//  231   // Register the endpoint description with the AF
//  232   afRegister( &GenericApp_epDesc );
        ; Setup parameters for call to function afRegister
        MOV     R2,#GenericApp_epDesc & 0xff
        MOV     R3,#(GenericApp_epDesc >> 8) & 0xff
        LCALL   `??afRegister::?relay`; Banked call to: afRegister
//  233 
//  234   // Register for all key events - This app will handle all key events
//  235   RegisterForKeys( GenericApp_TaskID );
        ; Setup parameters for call to function RegisterForKeys
        MOV     DPTR,#GenericApp_TaskID
        MOVX    A,@DPTR
        MOV     R1,A
        LCALL   `??RegisterForKeys::?relay`; Banked call to: RegisterForKeys
//  236 
//  237   // Update the display
//  238 #if defined ( LCD_SUPPORTED )
//  239   HalLcdWriteString( "GenericApp", HAL_LCD_LINE_1 );
        ; Setup parameters for call to function HalLcdWriteString
        MOV     R1,#0x1
        MOV     R2,#`?<Constant "GenericApp">` & 0xff
        MOV     R3,#(`?<Constant "GenericApp">` >> 8) & 0xff
        LCALL   `??HalLcdWriteString::?relay`; Banked call to: HalLcdWriteString
//  240 #endif
//  241 
//  242   ZDO_RegisterForZDOMsg( GenericApp_TaskID, End_Device_Bind_rsp );
        ; Setup parameters for call to function ZDO_RegisterForZDOMsg
        MOV     R2,#0x20
        MOV     R3,#-0x80
        MOV     DPTR,#GenericApp_TaskID
        MOVX    A,@DPTR
        MOV     R1,A
        LCALL   `??ZDO_RegisterForZDOMsg::?relay`; Banked call to: ZDO_RegisterForZDOMsg
//  243   ZDO_RegisterForZDOMsg( GenericApp_TaskID, Match_Desc_rsp );
        ; Setup parameters for call to function ZDO_RegisterForZDOMsg
        MOV     R2,#0x6
        MOV     R3,#-0x80
        MOV     DPTR,#GenericApp_TaskID
        MOVX    A,@DPTR
        MOV     R1,A
        LCALL   `??ZDO_RegisterForZDOMsg::?relay`; Banked call to: ZDO_RegisterForZDOMsg
//  244   ZDO_RegisterForZDOMsg( GenericApp_TaskID, NWK_addr_req );
        ; Setup parameters for call to function ZDO_RegisterForZDOMsg
        MOV     R2,#0x0
        MOV     R3,#0x0
        MOV     DPTR,#GenericApp_TaskID
        MOVX    A,@DPTR
        MOV     R1,A
        LCALL   `??ZDO_RegisterForZDOMsg::?relay`; Banked call to: ZDO_RegisterForZDOMsg
//  245 #if HAL_UART==TRUE
//  246   quannv15_UartInit();
        MOV     DPL,?XSP + 0
        MOV     DPH,?XSP + 1
        MOV     A,#0x1
        MOVX    @DPTR,A
        LCALL   ?XSTACK_DISP0_8
        MOV     A,#0x4
        MOVX    @DPTR,A
        MOV     A,#0x2
        LCALL   ?XSTACK_DISP0_8
        CLR     A
        MOVX    @DPTR,A
        MOV     A,#0x3
        LCALL   ?XSTACK_DISP0_8
        CLR     A
        MOVX    @DPTR,A
        INC     DPTR
        MOVX    @DPTR,A
        MOV     A,#0xa
        LCALL   ?XSTACK_DISP0_8
        MOV     A,#-0x80
        MOVX    @DPTR,A
        INC     DPTR
        CLR     A
        MOVX    @DPTR,A
        MOV     A,#0x12
        LCALL   ?XSTACK_DISP0_8
        MOV     A,#-0x80
        MOVX    @DPTR,A
        INC     DPTR
        CLR     A
        MOVX    @DPTR,A
        MOV     A,#0x5
        LCALL   ?XSTACK_DISP0_8
        CLR     A
        MOVX    @DPTR,A
        MOV     A,#0x1b
        LCALL   ?XSTACK_DISP0_8
        MOV     A,#`??uart_callback::?relay` & 0xff
        MOVX    @DPTR,A
        INC     DPTR
        MOV     A,#(`??uart_callback::?relay` >> 8) & 0xff
        MOVX    @DPTR,A
        MOV     A,#0x16
        LCALL   ?XSTACK_DISP0_8
        CLR     A
        MOVX    @DPTR,A
        ; Setup parameters for call to function HalUARTInit
        LCALL   `??HalUARTInit::?relay`; Banked call to: HalUARTInit
        ; Setup parameters for call to function HalUARTOpen
        MOV     R2,?XSP + 0
        MOV     R3,?XSP + 1
        MOV     R1,#0x0
        LCALL   `??HalUARTOpen::?relay`; Banked call to: HalUARTOpen
        ; Setup parameters for call to function uart_put_string
        MOV     R2,#`?<Constant "Firmware designed by:...">` & 0xff
        MOV     R3,#(`?<Constant "Firmware designed by:...">` >> 8) & 0xff
        LCALL   `??uart_put_string::?relay`; Banked call to: uart_put_string
//  247 #endif
//  248 #if defined( IAR_ARMCM3_LM )
//  249   // Register this task with RTOS task initiator
//  250   RTOS_RegisterApp( task_id, GENERICAPP_RTOS_MSG_EVT );
//  251 #endif
//  252 }
        MOV     A,#0x1d
        LCALL   ?DEALLOC_XSTACK8
          CFI CFA_XSP16 add(XSP16, 9)
        MOV     R7,#0x1
        LJMP    ?BANKED_LEAVE_XDATA
          CFI R6 SameValue
          CFI VB SameValue
          CFI V0 SameValue
          CFI R7 SameValue
          CFI ?RET_LOW Frame(CFA_SP, 1)
          CFI ?RET_HIGH Frame(CFA_SP, 2)
          CFI ?BRET_EXT Frame(CFA_SP, 3)
          CFI DPL0 SameValue
          CFI DPH0 SameValue
          CFI CFA_SP SP+-3
          CFI CFA_XSP16 XSP16+0
          CFI EndBlock cfiBlock1
//  253 
//  254 /*********************************************************************
//  255  * @fn      GenericApp_ProcessEvent
//  256  *
//  257  * @brief   Generic Application Task event processor.  This function
//  258  *          is called to process all events for the task.  Events
//  259  *          include timers, messages and any other user defined events.
//  260  *
//  261  * @param   task_id  - The OSAL assigned task ID.
//  262  * @param   events - events to process.  This is a bit map and can
//  263  *                   contain more than one event.
//  264  *
//  265  * @return  none
//  266  */

        RSEG BANKED_CODE:CODE:NOROOT(0)
//  267 uint16 GenericApp_ProcessEvent( uint8 task_id, uint16 events )
GenericApp_ProcessEvent:
          CFI Block cfiBlock2 Using cfiCommon0
          CFI Function GenericApp_ProcessEvent
        CODE
//  268 {
        FUNCALL GenericApp_ProcessEvent, osal_msg_receive
        LOCFRAME ISTACK, 0, STACK
        LOCFRAME PSTACK, 0, STACK
        LOCFRAME XSTACK, 12, STACK
        LOCFRAME IOVERLAY, 0, STATIC
        LOCFRAME DOVERLAY, 0, STATIC
        ARGFRAME ISTACK, 0, STACK
        ARGFRAME PSTACK, 0, STACK
        ARGFRAME XSTACK, 12, STACK
        ARGFRAME IOVERLAY, 0, STATIC
        ARGFRAME DOVERLAY, 0, STATIC
        FUNCALL GenericApp_ProcessEvent, uart_put_string
        LOCFRAME ISTACK, 0, STACK
        LOCFRAME PSTACK, 0, STACK
        LOCFRAME XSTACK, 12, STACK
        LOCFRAME IOVERLAY, 0, STATIC
        LOCFRAME DOVERLAY, 0, STATIC
        ARGFRAME ISTACK, 0, STACK
        ARGFRAME PSTACK, 0, STACK
        ARGFRAME XSTACK, 12, STACK
        ARGFRAME IOVERLAY, 0, STATIC
        ARGFRAME DOVERLAY, 0, STATIC
        FUNCALL GenericApp_ProcessEvent, osal_start_timerEx
        LOCFRAME ISTACK, 0, STACK
        LOCFRAME PSTACK, 0, STACK
        LOCFRAME XSTACK, 16, STACK
        LOCFRAME IOVERLAY, 0, STATIC
        LOCFRAME DOVERLAY, 0, STATIC
        ARGFRAME ISTACK, 0, STACK
        ARGFRAME PSTACK, 0, STACK
        ARGFRAME XSTACK, 16, STACK
        ARGFRAME IOVERLAY, 0, STATIC
        ARGFRAME DOVERLAY, 0, STATIC
        FUNCALL GenericApp_ProcessEvent, osal_msg_deallocate
        LOCFRAME ISTACK, 0, STACK
        LOCFRAME PSTACK, 0, STACK
        LOCFRAME XSTACK, 12, STACK
        LOCFRAME IOVERLAY, 0, STATIC
        LOCFRAME DOVERLAY, 0, STATIC
        ARGFRAME ISTACK, 0, STACK
        ARGFRAME PSTACK, 0, STACK
        ARGFRAME XSTACK, 12, STACK
        ARGFRAME IOVERLAY, 0, STATIC
        ARGFRAME DOVERLAY, 0, STATIC
        FUNCALL GenericApp_ProcessEvent, osal_msg_receive
        LOCFRAME ISTACK, 0, STACK
        LOCFRAME PSTACK, 0, STACK
        LOCFRAME XSTACK, 12, STACK
        LOCFRAME IOVERLAY, 0, STATIC
        LOCFRAME DOVERLAY, 0, STATIC
        ARGFRAME ISTACK, 0, STACK
        ARGFRAME PSTACK, 0, STACK
        ARGFRAME XSTACK, 12, STACK
        ARGFRAME IOVERLAY, 0, STATIC
        ARGFRAME DOVERLAY, 0, STATIC
        FUNCALL GenericApp_ProcessEvent, GenericApp_ProcessZDOMsgs
        LOCFRAME ISTACK, 0, STACK
        LOCFRAME PSTACK, 0, STACK
        LOCFRAME XSTACK, 12, STACK
        LOCFRAME IOVERLAY, 0, STATIC
        LOCFRAME DOVERLAY, 0, STATIC
        ARGFRAME ISTACK, 0, STACK
        ARGFRAME PSTACK, 0, STACK
        ARGFRAME XSTACK, 12, STACK
        ARGFRAME IOVERLAY, 0, STATIC
        ARGFRAME DOVERLAY, 0, STATIC
        FUNCALL GenericApp_ProcessEvent, GenericApp_HandleKeys
        LOCFRAME ISTACK, 0, STACK
        LOCFRAME PSTACK, 0, STACK
        LOCFRAME XSTACK, 12, STACK
        LOCFRAME IOVERLAY, 0, STATIC
        LOCFRAME DOVERLAY, 0, STATIC
        ARGFRAME ISTACK, 0, STACK
        ARGFRAME PSTACK, 0, STACK
        ARGFRAME XSTACK, 12, STACK
        ARGFRAME IOVERLAY, 0, STATIC
        ARGFRAME DOVERLAY, 0, STATIC
        FUNCALL GenericApp_ProcessEvent, uart_put_string_value
        LOCFRAME ISTACK, 0, STACK
        LOCFRAME PSTACK, 0, STACK
        LOCFRAME XSTACK, 12, STACK
        LOCFRAME IOVERLAY, 0, STATIC
        LOCFRAME DOVERLAY, 0, STATIC
        ARGFRAME ISTACK, 0, STACK
        ARGFRAME PSTACK, 0, STACK
        ARGFRAME XSTACK, 12, STACK
        ARGFRAME IOVERLAY, 0, STATIC
        ARGFRAME DOVERLAY, 0, STATIC
        FUNCALL GenericApp_ProcessEvent, uart_put_string
        LOCFRAME ISTACK, 0, STACK
        LOCFRAME PSTACK, 0, STACK
        LOCFRAME XSTACK, 12, STACK
        LOCFRAME IOVERLAY, 0, STATIC
        LOCFRAME DOVERLAY, 0, STATIC
        ARGFRAME ISTACK, 0, STACK
        ARGFRAME PSTACK, 0, STACK
        ARGFRAME XSTACK, 12, STACK
        ARGFRAME IOVERLAY, 0, STATIC
        ARGFRAME DOVERLAY, 0, STATIC
        FUNCALL GenericApp_ProcessEvent, HalLedSet
        LOCFRAME ISTACK, 0, STACK
        LOCFRAME PSTACK, 0, STACK
        LOCFRAME XSTACK, 12, STACK
        LOCFRAME IOVERLAY, 0, STATIC
        LOCFRAME DOVERLAY, 0, STATIC
        ARGFRAME ISTACK, 0, STACK
        ARGFRAME PSTACK, 0, STACK
        ARGFRAME XSTACK, 12, STACK
        ARGFRAME IOVERLAY, 0, STATIC
        ARGFRAME DOVERLAY, 0, STATIC
        FUNCALL GenericApp_ProcessEvent, HalLcdWriteString
        LOCFRAME ISTACK, 0, STACK
        LOCFRAME PSTACK, 0, STACK
        LOCFRAME XSTACK, 12, STACK
        LOCFRAME IOVERLAY, 0, STATIC
        LOCFRAME DOVERLAY, 0, STATIC
        ARGFRAME ISTACK, 0, STACK
        ARGFRAME PSTACK, 0, STACK
        ARGFRAME XSTACK, 12, STACK
        ARGFRAME IOVERLAY, 0, STATIC
        ARGFRAME DOVERLAY, 0, STATIC
        FUNCALL GenericApp_ProcessEvent, HalLcdWriteStringValue
        LOCFRAME ISTACK, 0, STACK
        LOCFRAME PSTACK, 0, STACK
        LOCFRAME XSTACK, 13, STACK
        LOCFRAME IOVERLAY, 0, STATIC
        LOCFRAME DOVERLAY, 0, STATIC
        ARGFRAME ISTACK, 0, STACK
        ARGFRAME PSTACK, 0, STACK
        ARGFRAME XSTACK, 13, STACK
        ARGFRAME IOVERLAY, 0, STATIC
        ARGFRAME DOVERLAY, 0, STATIC
        FUNCALL GenericApp_ProcessEvent, GenericApp_SendTheMessage
        LOCFRAME ISTACK, 0, STACK
        LOCFRAME PSTACK, 0, STACK
        LOCFRAME XSTACK, 12, STACK
        LOCFRAME IOVERLAY, 0, STATIC
        LOCFRAME DOVERLAY, 0, STATIC
        ARGFRAME ISTACK, 0, STACK
        ARGFRAME PSTACK, 0, STACK
        ARGFRAME XSTACK, 12, STACK
        ARGFRAME IOVERLAY, 0, STATIC
        ARGFRAME DOVERLAY, 0, STATIC
        FUNCALL GenericApp_ProcessEvent, osal_start_timerEx
        LOCFRAME ISTACK, 0, STACK
        LOCFRAME PSTACK, 0, STACK
        LOCFRAME XSTACK, 16, STACK
        LOCFRAME IOVERLAY, 0, STATIC
        LOCFRAME DOVERLAY, 0, STATIC
        ARGFRAME ISTACK, 0, STACK
        ARGFRAME PSTACK, 0, STACK
        ARGFRAME XSTACK, 16, STACK
        ARGFRAME IOVERLAY, 0, STATIC
        ARGFRAME DOVERLAY, 0, STATIC
        REQUIRE ?V0
        REQUIRE ?V1
        REQUIRE ?V2
        REQUIRE ?V3
        MOV     A,#-0xc
        LCALL   ?BANKED_ENTER_XDATA
          CFI DPH0 load(1, XDATA, add(CFA_XSP16, literal(-1)))
          CFI DPL0 load(1, XDATA, add(CFA_XSP16, literal(-2)))
          CFI ?BRET_EXT load(1, XDATA, add(CFA_XSP16, literal(-3)))
          CFI ?RET_HIGH load(1, XDATA, add(CFA_XSP16, literal(-4)))
          CFI ?RET_LOW load(1, XDATA, add(CFA_XSP16, literal(-5)))
          CFI R7 load(1, XDATA, add(CFA_XSP16, literal(-6)))
          CFI V3 load(1, XDATA, add(CFA_XSP16, literal(-7)))
          CFI V2 load(1, XDATA, add(CFA_XSP16, literal(-8)))
          CFI V1 load(1, XDATA, add(CFA_XSP16, literal(-9)))
          CFI V0 load(1, XDATA, add(CFA_XSP16, literal(-10)))
          CFI VB load(1, XDATA, add(CFA_XSP16, literal(-11)))
          CFI R6 load(1, XDATA, add(CFA_XSP16, literal(-12)))
          CFI CFA_SP SP+0
          CFI CFA_XSP16 add(XSP16, 12)
        ; Saved register size: 12
        ; Auto size: 0
        MOV     ?V0,R2
        MOV     ?V1,R3
//  269   afIncomingMSGPacket_t *MSGpkt;
//  270   afDataConfirm_t *afDataConfirm;
//  271 
//  272   // Data Confirmation message fields
//  273   byte sentEP;
//  274   ZStatus_t sentStatus;
//  275   byte sentTransID;       // This should match the value sent
//  276   (void)task_id;  // Intentionally unreferenced parameter
//  277 
//  278   if ( events & SYS_EVENT_MSG )
        MOV     A,R3
        ANL     A,#0x80
        JNZ     $+5
        LJMP    ??GenericApp_ProcessEvent_0 & 0xFFFF
//  279   {
//  280     MSGpkt = (afIncomingMSGPacket_t *)osal_msg_receive( GenericApp_TaskID );
        ; Setup parameters for call to function osal_msg_receive
        SJMP    ??GenericApp_ProcessEvent_1
//  281     while ( MSGpkt )
//  282     {
//  283       switch ( MSGpkt->hdr.event )
//  284       {
//  285         case ZDO_CB_MSG:
//  286           GenericApp_ProcessZDOMsgs( (zdoIncomingMsg_t *)MSGpkt );
//  287           break;
//  288 
//  289         case KEY_CHANGE:
//  290           GenericApp_HandleKeys( ((keyChange_t *)MSGpkt)->state, ((keyChange_t *)MSGpkt)->keys );
//  291           break;
//  292 
//  293         case AF_DATA_CONFIRM_CMD:
//  294           // This message is received as a confirmation of a data packet sent.
//  295           // The status is of ZStatus_t type [defined in ZComDef.h]
//  296           // The message fields are defined in AF.h
//  297           sentStatus = MSGpkt->hdr.status;
//  298           // Action taken when confirmation is received.
//  299           if ( sentStatus != ZSuccess )
//  300           {
//  301 			  DBG_PRINTF_VALUE("\r\nSend msg fail:", sentStatus, 16);
//  302 			 break;
//  303             // The data wasn't delivered -- Do something
//  304           }
//  305 		  DBG_PRINTF("\r\nSend msg success\r\n");
//  306 
//  307 
//  308           break;
//  309 
//  310         case AF_INCOMING_MSG_CMD:
//  311           GenericApp_MessageMSGCB( MSGpkt );
//  312           break;
//  313 
//  314         case ZDO_STATE_CHANGE:
//  315           GenericApp_NwkState = (devStates_t)(MSGpkt->hdr.status);
??GenericApp_ProcessEvent_2:
        INC     DPTR
        MOVX    A,@DPTR
        MOV     DPTR,#GenericApp_NwkState
        MOVX    @DPTR,A
//  316           if ( (GenericApp_NwkState == DEV_ZB_COORD) ||
//  317                (GenericApp_NwkState == DEV_ROUTER) ||
//  318                (GenericApp_NwkState == DEV_END_DEVICE) )
        XRL     A,#0x9
        JZ      ??GenericApp_ProcessEvent_3
        MOVX    A,@DPTR
        XRL     A,#0x7
        JZ      ??GenericApp_ProcessEvent_3
        MOVX    A,@DPTR
        XRL     A,#0x6
        JNZ     ??GenericApp_ProcessEvent_4
//  319           {
//  320 			  DBG_PRINTF("\r\n ZDO change state\r\n");
??GenericApp_ProcessEvent_3:
        ; Setup parameters for call to function uart_put_string
        MOV     R2,#`?<Constant "\\r\\n ZDO change state\\r\\n">` & 0xff
        MOV     R3,#(`?<Constant "\\r\\n ZDO change state\\r\\n">` >> 8) & 0xff
        LCALL   `??uart_put_string::?relay`; Banked call to: uart_put_string
//  321 //			   Start sending "the" message in a regular interval.
//  322 			  osal_start_timerEx( GenericApp_TaskID,
//  323 								 GENERICAPP_SEND_MSG_EVT,
//  324 								 txMsgDelay );
        ; Setup parameters for call to function osal_start_timerEx
        MOV     DPTR,#txMsgDelay
        LCALL   ?PUSH_XSTACK8_X_FOUR
          CFI CFA_XSP16 add(XSP16, 16)
        MOV     R2,#0x1
        MOV     R3,#0x0
        MOV     DPTR,#GenericApp_TaskID
        MOVX    A,@DPTR
        MOV     R1,A
        LCALL   `??osal_start_timerEx::?relay`; Banked call to: osal_start_timerEx
        MOV     A,#0x4
        LCALL   ?DEALLOC_XSTACK8
          CFI CFA_XSP16 add(XSP16, 12)
//  325           }
//  326           break;
//  327 
//  328         default:
//  329           break;
//  330       }
//  331 
//  332       // Release the memory
//  333       osal_msg_deallocate( (uint8 *)MSGpkt );
??GenericApp_ProcessEvent_4:
        ; Setup parameters for call to function osal_msg_deallocate
        MOV     A,R6
        MOV     R2,A
        MOV     A,R7
        MOV     R3,A
        LCALL   `??osal_msg_deallocate::?relay`; Banked call to: osal_msg_deallocate
//  334 
//  335       // Next
//  336       MSGpkt = (afIncomingMSGPacket_t *)osal_msg_receive( GenericApp_TaskID );
        ; Setup parameters for call to function osal_msg_receive
??GenericApp_ProcessEvent_1:
        MOV     DPTR,#GenericApp_TaskID
        MOVX    A,@DPTR
        MOV     R1,A
        LCALL   `??osal_msg_receive::?relay`; Banked call to: osal_msg_receive
        MOV     ?V2,R2
        MOV     ?V3,R3
        MOV     R6,?V2
        MOV     R7,?V3
        MOV     A,R6
        ORL     A,R7
        JNZ     $+5
        LJMP    ??GenericApp_ProcessEvent_5 & 0xFFFF
        MOV     DPL,R6
        MOV     DPH,R7
        MOVX    A,@DPTR
        ADD     A,#-0x1a
        JZ      ??GenericApp_ProcessEvent_6
        ADD     A,#0x5a
        JZ      ??GenericApp_ProcessEvent_7
        ADD     A,#-0x11
        JZ      ??GenericApp_ProcessEvent_2
        ADD     A,#-0x2
        JZ      ??GenericApp_ProcessEvent_8
        ADD     A,#-0x2a
        JZ      ??GenericApp_ProcessEvent_9
        SJMP    ??GenericApp_ProcessEvent_4
??GenericApp_ProcessEvent_8:
        ; Setup parameters for call to function GenericApp_ProcessZDOMsgs
        MOV     A,R6
        MOV     R2,A
        MOV     A,R7
        MOV     R3,A
        LCALL   `??GenericApp_ProcessZDOMsgs::?relay`; Banked call to: GenericApp_ProcessZDOMsgs
        SJMP    ??GenericApp_ProcessEvent_4
??GenericApp_ProcessEvent_7:
        ; Setup parameters for call to function GenericApp_HandleKeys
        INC     DPTR
        INC     DPTR
        INC     DPTR
        MOVX    A,@DPTR
        MOV     R2,A
        MOV     DPL,R6
        MOV     DPH,R7
        INC     DPTR
        INC     DPTR
        MOVX    A,@DPTR
        MOV     R1,A
        LCALL   `??GenericApp_HandleKeys::?relay`; Banked call to: GenericApp_HandleKeys
        SJMP    ??GenericApp_ProcessEvent_4
??GenericApp_ProcessEvent_9:
        INC     DPTR
        MOVX    A,@DPTR
        MOV     R4,A
        JZ      ??GenericApp_ProcessEvent_10
        ; Setup parameters for call to function uart_put_string_value
        MOV     R1,#0x10
        MOV     R5,#0x0
        MOV     R2,#`?<Constant "\\r\\nSend msg fail:">` & 0xff
        MOV     R3,#(`?<Constant "\\r\\nSend msg fail:">` >> 8) & 0xff
        LCALL   `??uart_put_string_value::?relay`; Banked call to: uart_put_string_value
        SJMP    ??GenericApp_ProcessEvent_4
??GenericApp_ProcessEvent_10:
        ; Setup parameters for call to function uart_put_string
        MOV     R2,#`?<Constant "\\r\\nSend msg success\\r\\n">` & 0xff
        MOV     R3,#(`?<Constant "\\r\\nSend msg success\\r\\n">` >> 8) & 0xff
        LCALL   `??uart_put_string::?relay`; Banked call to: uart_put_string
        SJMP    ??GenericApp_ProcessEvent_4
??GenericApp_ProcessEvent_6:
        INC     DPTR
        INC     DPTR
        INC     DPTR
        INC     DPTR
        MOVX    A,@DPTR
        XRL     A,#0x1
        JNZ     ??GenericApp_ProcessEvent_11
        INC     DPTR
        MOVX    A,@DPTR
??GenericApp_ProcessEvent_11:
        JNZ     ??GenericApp_ProcessEvent_4
        MOV     DPTR,#rxMsgCount
        MOVX    A,@DPTR
        ADD     A,#0x1
        MOVX    @DPTR,A
        INC     DPTR
        MOVX    A,@DPTR
        ADDC    A,#0x0
        MOVX    @DPTR,A
        ; Setup parameters for call to function HalLedSet
        MOV     R2,#0x2
        MOV     R1,#0x8
        LCALL   `??HalLedSet::?relay`; Banked call to: HalLedSet
        ; Setup parameters for call to function HalLcdWriteString
        MOV     R1,#0x1
        MOV     A,R6
        ADD     A,#0x22
        MOV     DPL,A
        CLR     A
        ADDC    A,R7
        MOV     DPH,A
        MOVX    A,@DPTR
        MOV     R2,A
        INC     DPTR
        MOVX    A,@DPTR
        MOV     R3,A
        LCALL   `??HalLcdWriteString::?relay`; Banked call to: HalLcdWriteString
        ; Setup parameters for call to function HalLcdWriteStringValue
        MOV     ?V2,#0x2
        MOV     R0,#?V2
        LCALL   ?PUSH_XSTACK_I_ONE
          CFI CFA_XSP16 add(XSP16, 13)
        MOV     R1,#0xa
        MOV     DPTR,#rxMsgCount
        MOVX    A,@DPTR
        MOV     R4,A
        INC     DPTR
        MOVX    A,@DPTR
        MOV     R5,A
        MOV     R2,#`?<Constant "Rcvd:">` & 0xff
        MOV     R3,#(`?<Constant "Rcvd:">` >> 8) & 0xff
        LCALL   `??HalLcdWriteStringValue::?relay`; Banked call to: HalLcdWriteStringValue
        MOV     A,#0x1
        LCALL   ?DEALLOC_XSTACK8
          CFI CFA_XSP16 add(XSP16, 12)
        LJMP    ??GenericApp_ProcessEvent_4 & 0xFFFF
//  337     }
//  338 
//  339     // return unprocessed events
//  340     return (events ^ SYS_EVENT_MSG);
??GenericApp_ProcessEvent_5:
        MOV     R2,?V0
        MOV     A,?V1
        XRL     A,#0x80
        MOV     R3,A
        SJMP    ??GenericApp_ProcessEvent_12
//  341   }
//  342 
//  343   // Send a message out - This event is generated by a timer
//  344   //  (setup in GenericApp_Init()).
//  345   if ( events & GENERICAPP_SEND_MSG_EVT )
??GenericApp_ProcessEvent_0:
        MOV     A,R2
        MOV     C,0xE0 /* A   */.0
        JNC     ??GenericApp_ProcessEvent_13
//  346   {
//  347 	
//  348 
//  349     // Send "the" message
//  350     GenericApp_SendTheMessage();
        ; Setup parameters for call to function GenericApp_SendTheMessage
        LCALL   `??GenericApp_SendTheMessage::?relay`; Banked call to: GenericApp_SendTheMessage
//  351 			
//  352 //	// if last msg is sent success, Setup to send message again
//  353 	osal_start_timerEx( GenericApp_TaskID,
//  354 					   GENERICAPP_SEND_MSG_EVT,
//  355 					   txMsgDelay );
        ; Setup parameters for call to function osal_start_timerEx
        MOV     DPTR,#txMsgDelay
        LCALL   ?PUSH_XSTACK8_X_FOUR
          CFI CFA_XSP16 add(XSP16, 16)
        MOV     R2,#0x1
        MOV     R3,#0x0
        MOV     DPTR,#GenericApp_TaskID
        MOVX    A,@DPTR
        MOV     R1,A
        LCALL   `??osal_start_timerEx::?relay`; Banked call to: osal_start_timerEx
        MOV     A,#0x4
        LCALL   ?DEALLOC_XSTACK8
          CFI CFA_XSP16 add(XSP16, 12)
//  356 
//  357     // return unprocessed events
//  358     return (events ^ GENERICAPP_SEND_MSG_EVT);
        MOV     A,?V0
        XRL     A,#0x1
        MOV     R2,A
        MOV     R3,?V1
        SJMP    ??GenericApp_ProcessEvent_12
//  359   }
//  360 
//  361 #if defined( IAR_ARMCM3_LM )
//  362   // Receive a message from the RTOS queue
//  363   if ( events & GENERICAPP_RTOS_MSG_EVT )
//  364   {
//  365     // Process message from RTOS queue
//  366     GenericApp_ProcessRtosMessage();
//  367 
//  368     // return unprocessed events
//  369     return (events ^ GENERICAPP_RTOS_MSG_EVT);
//  370   }
//  371 #endif
//  372 
//  373   // Discard unknown events
//  374   return 0;
??GenericApp_ProcessEvent_13:
        MOV     R2,#0x0
        MOV     R3,#0x0
??GenericApp_ProcessEvent_12:
          CFI EndBlock cfiBlock2
        REQUIRE ?Subroutine0
        ; // Fall through to label ?Subroutine0
//  375 }

        RSEG BANKED_CODE:CODE:NOROOT(0)
?Subroutine0:
          CFI Block cfiBlock3 Using cfiCommon0
          CFI NoFunction
          CFI CFA_SP SP+0
          CFI CFA_XSP16 add(XSP16, 12)
          CFI VB load(1, XDATA, add(CFA_XSP16, literal(-11)))
          CFI DPL0 load(1, XDATA, add(CFA_XSP16, literal(-2)))
          CFI DPH0 load(1, XDATA, add(CFA_XSP16, literal(-1)))
          CFI R6 load(1, XDATA, add(CFA_XSP16, literal(-12)))
          CFI R7 load(1, XDATA, add(CFA_XSP16, literal(-6)))
          CFI V0 load(1, XDATA, add(CFA_XSP16, literal(-10)))
          CFI V1 load(1, XDATA, add(CFA_XSP16, literal(-9)))
          CFI V2 load(1, XDATA, add(CFA_XSP16, literal(-8)))
          CFI V3 load(1, XDATA, add(CFA_XSP16, literal(-7)))
          CFI ?BRET_EXT load(1, XDATA, add(CFA_XSP16, literal(-3)))
          CFI ?RET_HIGH load(1, XDATA, add(CFA_XSP16, literal(-4)))
          CFI ?RET_LOW load(1, XDATA, add(CFA_XSP16, literal(-5)))
        MOV     R7,#0x4
        LJMP    ?BANKED_LEAVE_XDATA
          CFI CFA_SP SP+-3
          CFI CFA_XSP16 XSP16+0
          CFI VB SameValue
          CFI DPL0 SameValue
          CFI DPH0 SameValue
          CFI R6 SameValue
          CFI R7 SameValue
          CFI V0 SameValue
          CFI V1 SameValue
          CFI V2 SameValue
          CFI V3 SameValue
          CFI ?BRET_EXT Frame(CFA_SP, 3)
          CFI ?RET_HIGH Frame(CFA_SP, 2)
          CFI ?RET_LOW Frame(CFA_SP, 1)
          CFI EndBlock cfiBlock3
//  376 
//  377 /*********************************************************************
//  378  * Event Generation Functions
//  379  */
//  380 
//  381 /*********************************************************************
//  382  * @fn      GenericApp_ProcessZDOMsgs()
//  383  *
//  384  * @brief   Process response messages
//  385  *
//  386  * @param   none
//  387  *
//  388  * @return  none
//  389  */

        RSEG BANKED_CODE:CODE:NOROOT(0)
//  390 static void GenericApp_ProcessZDOMsgs( zdoIncomingMsg_t *inMsg )
GenericApp_ProcessZDOMsgs:
          CFI Block cfiBlock4 Using cfiCommon0
          CFI Function GenericApp_ProcessZDOMsgs
        CODE
//  391 {
        FUNCALL GenericApp_ProcessZDOMsgs, ZDO_ParseDeviceAnnce
        LOCFRAME ISTACK, 0, STACK
        LOCFRAME PSTACK, 0, STACK
        LOCFRAME XSTACK, 21, STACK
        LOCFRAME IOVERLAY, 0, STATIC
        LOCFRAME DOVERLAY, 0, STATIC
        ARGFRAME ISTACK, 0, STACK
        ARGFRAME PSTACK, 0, STACK
        ARGFRAME XSTACK, 21, STACK
        ARGFRAME IOVERLAY, 0, STATIC
        ARGFRAME DOVERLAY, 0, STATIC
        FUNCALL GenericApp_ProcessZDOMsgs, uart_put_string
        LOCFRAME ISTACK, 0, STACK
        LOCFRAME PSTACK, 0, STACK
        LOCFRAME XSTACK, 21, STACK
        LOCFRAME IOVERLAY, 0, STATIC
        LOCFRAME DOVERLAY, 0, STATIC
        ARGFRAME ISTACK, 0, STACK
        ARGFRAME PSTACK, 0, STACK
        ARGFRAME XSTACK, 21, STACK
        ARGFRAME IOVERLAY, 0, STATIC
        ARGFRAME DOVERLAY, 0, STATIC
        FUNCALL GenericApp_ProcessZDOMsgs, uart_put_string_value
        LOCFRAME ISTACK, 0, STACK
        LOCFRAME PSTACK, 0, STACK
        LOCFRAME XSTACK, 21, STACK
        LOCFRAME IOVERLAY, 0, STATIC
        LOCFRAME DOVERLAY, 0, STATIC
        ARGFRAME ISTACK, 0, STACK
        ARGFRAME PSTACK, 0, STACK
        ARGFRAME XSTACK, 21, STACK
        ARGFRAME IOVERLAY, 0, STATIC
        ARGFRAME DOVERLAY, 0, STATIC
        FUNCALL GenericApp_ProcessZDOMsgs, uart_put_string
        LOCFRAME ISTACK, 0, STACK
        LOCFRAME PSTACK, 0, STACK
        LOCFRAME XSTACK, 21, STACK
        LOCFRAME IOVERLAY, 0, STATIC
        LOCFRAME DOVERLAY, 0, STATIC
        ARGFRAME ISTACK, 0, STACK
        ARGFRAME PSTACK, 0, STACK
        ARGFRAME XSTACK, 21, STACK
        ARGFRAME IOVERLAY, 0, STATIC
        ARGFRAME DOVERLAY, 0, STATIC
        FUNCALL GenericApp_ProcessZDOMsgs, uart_put_byte_array
        LOCFRAME ISTACK, 0, STACK
        LOCFRAME PSTACK, 0, STACK
        LOCFRAME XSTACK, 21, STACK
        LOCFRAME IOVERLAY, 0, STATIC
        LOCFRAME DOVERLAY, 0, STATIC
        ARGFRAME ISTACK, 0, STACK
        ARGFRAME PSTACK, 0, STACK
        ARGFRAME XSTACK, 21, STACK
        ARGFRAME IOVERLAY, 0, STATIC
        ARGFRAME DOVERLAY, 0, STATIC
        FUNCALL GenericApp_ProcessZDOMsgs, uart_put_string
        LOCFRAME ISTACK, 0, STACK
        LOCFRAME PSTACK, 0, STACK
        LOCFRAME XSTACK, 21, STACK
        LOCFRAME IOVERLAY, 0, STATIC
        LOCFRAME DOVERLAY, 0, STATIC
        ARGFRAME ISTACK, 0, STACK
        ARGFRAME PSTACK, 0, STACK
        ARGFRAME XSTACK, 21, STACK
        ARGFRAME IOVERLAY, 0, STATIC
        ARGFRAME DOVERLAY, 0, STATIC
        FUNCALL GenericApp_ProcessZDOMsgs, HalLedSet
        LOCFRAME ISTACK, 0, STACK
        LOCFRAME PSTACK, 0, STACK
        LOCFRAME XSTACK, 21, STACK
        LOCFRAME IOVERLAY, 0, STATIC
        LOCFRAME DOVERLAY, 0, STATIC
        ARGFRAME ISTACK, 0, STACK
        ARGFRAME PSTACK, 0, STACK
        ARGFRAME XSTACK, 21, STACK
        ARGFRAME IOVERLAY, 0, STATIC
        ARGFRAME DOVERLAY, 0, STATIC
        FUNCALL GenericApp_ProcessZDOMsgs, ZDO_ParseEPListRsp
        LOCFRAME ISTACK, 0, STACK
        LOCFRAME PSTACK, 0, STACK
        LOCFRAME XSTACK, 21, STACK
        LOCFRAME IOVERLAY, 0, STATIC
        LOCFRAME DOVERLAY, 0, STATIC
        ARGFRAME ISTACK, 0, STACK
        ARGFRAME PSTACK, 0, STACK
        ARGFRAME XSTACK, 21, STACK
        ARGFRAME IOVERLAY, 0, STATIC
        ARGFRAME DOVERLAY, 0, STATIC
        FUNCALL GenericApp_ProcessZDOMsgs, HalLedSet
        LOCFRAME ISTACK, 0, STACK
        LOCFRAME PSTACK, 0, STACK
        LOCFRAME XSTACK, 21, STACK
        LOCFRAME IOVERLAY, 0, STATIC
        LOCFRAME DOVERLAY, 0, STATIC
        ARGFRAME ISTACK, 0, STACK
        ARGFRAME PSTACK, 0, STACK
        ARGFRAME XSTACK, 21, STACK
        ARGFRAME IOVERLAY, 0, STATIC
        ARGFRAME DOVERLAY, 0, STATIC
        FUNCALL GenericApp_ProcessZDOMsgs, osal_mem_free
        LOCFRAME ISTACK, 0, STACK
        LOCFRAME PSTACK, 0, STACK
        LOCFRAME XSTACK, 21, STACK
        LOCFRAME IOVERLAY, 0, STATIC
        LOCFRAME DOVERLAY, 0, STATIC
        ARGFRAME ISTACK, 0, STACK
        ARGFRAME PSTACK, 0, STACK
        ARGFRAME XSTACK, 21, STACK
        ARGFRAME IOVERLAY, 0, STATIC
        ARGFRAME DOVERLAY, 0, STATIC
        REQUIRE ?V0
        REQUIRE ?V1
        MOV     A,#-0xa
        LCALL   ?BANKED_ENTER_XDATA
          CFI DPH0 load(1, XDATA, add(CFA_XSP16, literal(-1)))
          CFI DPL0 load(1, XDATA, add(CFA_XSP16, literal(-2)))
          CFI ?BRET_EXT load(1, XDATA, add(CFA_XSP16, literal(-3)))
          CFI ?RET_HIGH load(1, XDATA, add(CFA_XSP16, literal(-4)))
          CFI ?RET_LOW load(1, XDATA, add(CFA_XSP16, literal(-5)))
          CFI R7 load(1, XDATA, add(CFA_XSP16, literal(-6)))
          CFI V1 load(1, XDATA, add(CFA_XSP16, literal(-7)))
          CFI V0 load(1, XDATA, add(CFA_XSP16, literal(-8)))
          CFI VB load(1, XDATA, add(CFA_XSP16, literal(-9)))
          CFI R6 load(1, XDATA, add(CFA_XSP16, literal(-10)))
          CFI CFA_SP SP+0
          CFI CFA_XSP16 add(XSP16, 10)
        ; Saved register size: 10
        ; Auto size: 11
        MOV     A,#-0xb
        LCALL   ?ALLOC_XSTACK8
          CFI CFA_XSP16 add(XSP16, 21)
//  392   ZDO_DeviceAnnce_t dev_annce;
//  393   ZDO_MgmtRtgRsp_t *mng_rtg;
//  394   zAddrType_t dstAddr;
//  395   switch ( inMsg->clusterID )
        MOV     A,R2
        ADD     A,#0xc
        MOV     DPL,A
        CLR     A
        ADDC    A,R3
        MOV     DPH,A
        MOVX    A,@DPTR
        MOV     ?V0,A
        INC     DPTR
        MOVX    A,@DPTR
        MOV     ?V1,A
        MOV     R0,#?V0
        LCALL   ?US_SWITCH_SPARSE
`?<Jumptable for GenericApp_ProcessZDOMsgs>_0`:
        DATA
        DATA16
        DATA
        DATA16
        DATA
        DATA16
        DW        0
        DATA
        DATA16
        DATA
        DATA16
        DATA
        DATA16
        DW        4
        DATA
        DATA16
        DATA
        DATA16
        DATA
        DATA16
        DW        0
        DATA
        DATA16
        DATA
        DATA16
        DATA
        DATA16
        DW        ??GenericApp_ProcessZDOMsgs_0
        DATA
        DATA16
        DATA
        DATA16
        DATA
        DATA16
        DW        19
        DATA
        DATA16
        DATA
        DATA16
        DATA
        DATA16
        DW        ??GenericApp_ProcessZDOMsgs_1
        DATA
        DATA16
        DATA
        DATA16
        DATA
        DATA16
        DW        32774
        DATA
        DATA16
        DATA
        DATA16
        DATA
        DATA16
        DW        ??GenericApp_ProcessZDOMsgs_2
        DATA
        DATA16
        DATA
        DATA16
        DATA
        DATA16
        DW        32800
        DATA
        DATA16
        DATA
        DATA16
        DATA
        DATA16
        DW        ??GenericApp_ProcessZDOMsgs_3
        DATA
        DATA16
        DATA
        DATA16
        DW        ??GenericApp_ProcessZDOMsgs_4
        CODE
//  396   {
//  397       case Device_annce:
//  398           ZDO_ParseDeviceAnnce(inMsg, &dev_annce);
??GenericApp_ProcessZDOMsgs_1:
        ; Setup parameters for call to function ZDO_ParseDeviceAnnce
        MOV     R4,?XSP + 0
        MOV     R5,?XSP + 1
        LCALL   `??ZDO_ParseDeviceAnnce::?relay`; Banked call to: ZDO_ParseDeviceAnnce
//  399 	  DBG_PRINTF("\r\nNew node joined\r\n");
        ; Setup parameters for call to function uart_put_string
        MOV     R2,#`?<Constant "\\r\\nNew node joined\\r\\n">` & 0xff
        MOV     R3,#(`?<Constant "\\r\\nNew node joined\\r\\n">` >> 8) & 0xff
        LCALL   `??uart_put_string::?relay`; Banked call to: uart_put_string
//  400 	  DBG_PRINTF_VALUE("\r\nnwk addr:", dev_annce.nwkAddr, 16);
        ; Setup parameters for call to function uart_put_string_value
        MOV     R1,#0x10
        MOV     DPL,?XSP + 0
        MOV     DPH,?XSP + 1
        MOVX    A,@DPTR
        MOV     R4,A
        INC     DPTR
        MOVX    A,@DPTR
        MOV     R5,A
        MOV     R2,#`?<Constant "\\r\\nnwk addr:">` & 0xff
        MOV     R3,#(`?<Constant "\\r\\nnwk addr:">` >> 8) & 0xff
        LCALL   `??uart_put_string_value::?relay`; Banked call to: uart_put_string_value
//  401 	  DBG_PRINTF("\r\nIEEE address:");
        ; Setup parameters for call to function uart_put_string
        MOV     R2,#`?<Constant "\\r\\nIEEE address:">` & 0xff
        MOV     R3,#(`?<Constant "\\r\\nIEEE address:">` >> 8) & 0xff
        LCALL   `??uart_put_string::?relay`; Banked call to: uart_put_string
//  402 	  DBG_NPRINTF(dev_annce.extAddr, Z_EXTADDR_LEN);
        ; Setup parameters for call to function uart_put_byte_array
        MOV     R4,#0x8
        MOV     R5,#0x0
        MOV     A,#0x2
        LCALL   ?XSTACK_DISP0_8
        MOV     R2,DPL
        MOV     R3,DPH
        LCALL   `??uart_put_byte_array::?relay`; Banked call to: uart_put_byte_array
//  403           break;
        SJMP    ??GenericApp_ProcessZDOMsgs_4
//  404       case NWK_addr_req:
//  405 	  DBG_PRINTF("\r\nrecv nwk addr req\r\n");
??GenericApp_ProcessZDOMsgs_0:
        ; Setup parameters for call to function uart_put_string
        MOV     R2,#`?<Constant "\\r\\nrecv nwk addr req\\r\\n">` & 0xff
        MOV     R3,#(`?<Constant "\\r\\nrecv nwk addr req\\r\\n">` >> 8) & 0xff
        LCALL   `??uart_put_string::?relay`; Banked call to: uart_put_string
//  406 	  break;
        SJMP    ??GenericApp_ProcessZDOMsgs_4
//  407     case End_Device_Bind_rsp:
//  408       if ( ZDO_ParseBindRsp( inMsg ) == ZSuccess )
??GenericApp_ProcessZDOMsgs_3:
        MOV     A,R2
        ADD     A,#0x13
        MOV     DPL,A
        CLR     A
        ADDC    A,R3
        MOV     DPH,A
        MOVX    A,@DPTR
        MOV     R0,A
        INC     DPTR
        MOVX    A,@DPTR
        MOV     DPH,A
        MOV     DPL,R0
        MOVX    A,@DPTR
        JNZ     ??GenericApp_ProcessZDOMsgs_4
//  409       {
//  410         // Light LED
//  411         HalLedSet( HAL_LED_4, HAL_LED_MODE_ON );
        ; Setup parameters for call to function HalLedSet
        MOV     R2,#0x1
        MOV     R1,#0x8
        LCALL   `??HalLedSet::?relay`; Banked call to: HalLedSet
        SJMP    ??GenericApp_ProcessZDOMsgs_4
//  412       }
//  413 #if defined( BLINK_LEDS )
//  414       else
//  415       {
//  416         // Flash LED to show failure
//  417         HalLedSet ( HAL_LED_4, HAL_LED_MODE_FLASH );
//  418       }
//  419 #endif
//  420       break;
//  421 
//  422     case Match_Desc_rsp:
//  423       {
//  424         ZDO_ActiveEndpointRsp_t *pRsp = ZDO_ParseEPListRsp( inMsg );
??GenericApp_ProcessZDOMsgs_2:
        ; Setup parameters for call to function ZDO_ParseEPListRsp
        LCALL   `??ZDO_ParseEPListRsp::?relay`; Banked call to: ZDO_ParseEPListRsp
        MOV     ?V0,R2
        MOV     ?V1,R3
        MOV     R6,?V0
        MOV     R7,?V1
//  425         if ( pRsp )
        MOV     A,R6
        ORL     A,R7
        JZ      ??GenericApp_ProcessZDOMsgs_4
//  426         {
//  427           if ( pRsp->status == ZSuccess && pRsp->cnt )
        MOV     DPL,R6
        MOV     DPH,R7
        MOVX    A,@DPTR
        JNZ     ??GenericApp_ProcessZDOMsgs_5
        INC     DPTR
        INC     DPTR
        INC     DPTR
        MOVX    A,@DPTR
        JZ      ??GenericApp_ProcessZDOMsgs_5
//  428           {
//  429             GenericApp_DstAddr.addrMode = (afAddrMode_t)Addr16Bit;
        MOV     DPTR,#GenericApp_DstAddr + 8
        MOV     A,#0x2
        MOVX    @DPTR,A
//  430             GenericApp_DstAddr.addr.shortAddr = pRsp->nwkAddr;
        MOV     DPL,R6
        MOV     DPH,R7
        INC     DPTR
        MOVX    A,@DPTR
        MOV     R0,A
        INC     DPTR
        MOVX    A,@DPTR
        MOV     R1,A
        MOV     DPTR,#GenericApp_DstAddr
        MOV     A,R0
        MOVX    @DPTR,A
        INC     DPTR
        MOV     A,R1
        MOVX    @DPTR,A
//  431             // Take the first endpoint, Can be changed to search through endpoints
//  432             GenericApp_DstAddr.endPoint = pRsp->epList[0];
        MOV     DPL,R6
        MOV     DPH,R7
        INC     DPTR
        INC     DPTR
        INC     DPTR
        INC     DPTR
        MOVX    A,@DPTR
        MOV     DPTR,#GenericApp_DstAddr + 9
        MOVX    @DPTR,A
//  433 
//  434             // Light LED
//  435             HalLedSet( HAL_LED_4, HAL_LED_MODE_ON );
        ; Setup parameters for call to function HalLedSet
        MOV     R2,#0x1
        MOV     R1,#0x8
        LCALL   `??HalLedSet::?relay`; Banked call to: HalLedSet
//  436           }
//  437           osal_mem_free( pRsp );
??GenericApp_ProcessZDOMsgs_5:
        ; Setup parameters for call to function osal_mem_free
        MOV     A,R6
        MOV     R2,A
        MOV     A,R7
        MOV     R3,A
        LCALL   `??osal_mem_free::?relay`; Banked call to: osal_mem_free
//  438         }
//  439       }
//  440       break;
//  441   }
//  442 }
??GenericApp_ProcessZDOMsgs_4:
        MOV     A,#0xb
          CFI EndBlock cfiBlock4
        REQUIRE ?Subroutine1
        ; // Fall through to label ?Subroutine1

        RSEG BANKED_CODE:CODE:NOROOT(0)
?Subroutine1:
          CFI Block cfiBlock5 Using cfiCommon0
          CFI NoFunction
          CFI CFA_SP SP+0
          CFI CFA_XSP16 add(XSP16, 21)
          CFI VB load(1, XDATA, add(CFA_XSP16, literal(-9)))
          CFI DPL0 load(1, XDATA, add(CFA_XSP16, literal(-2)))
          CFI DPH0 load(1, XDATA, add(CFA_XSP16, literal(-1)))
          CFI R6 load(1, XDATA, add(CFA_XSP16, literal(-10)))
          CFI R7 load(1, XDATA, add(CFA_XSP16, literal(-6)))
          CFI V0 load(1, XDATA, add(CFA_XSP16, literal(-8)))
          CFI V1 load(1, XDATA, add(CFA_XSP16, literal(-7)))
          CFI ?BRET_EXT load(1, XDATA, add(CFA_XSP16, literal(-3)))
          CFI ?RET_HIGH load(1, XDATA, add(CFA_XSP16, literal(-4)))
          CFI ?RET_LOW load(1, XDATA, add(CFA_XSP16, literal(-5)))
          CFI Invalid
        LCALL   ?DEALLOC_XSTACK8
          CFI CFA_XSP16 add(XSP16, 10)
          CFI Valid
        MOV     R7,#0x2
        LJMP    ?BANKED_LEAVE_XDATA
          CFI CFA_SP SP+-3
          CFI CFA_XSP16 XSP16+0
          CFI VB SameValue
          CFI DPL0 SameValue
          CFI DPH0 SameValue
          CFI R6 SameValue
          CFI R7 SameValue
          CFI V0 SameValue
          CFI V1 SameValue
          CFI ?BRET_EXT Frame(CFA_SP, 3)
          CFI ?RET_HIGH Frame(CFA_SP, 2)
          CFI ?RET_LOW Frame(CFA_SP, 1)
          CFI EndBlock cfiBlock5
//  443 
//  444 /*********************************************************************
//  445  * @fn      GenericApp_HandleKeys
//  446  *
//  447  * @brief   Handles all key events for this device.
//  448  *
//  449  * @param   shift - true if in shift/alt.
//  450  * @param   keys - bit field for key events. Valid entries:
//  451  *                 HAL_KEY_SW_4
//  452  *                 HAL_KEY_SW_3
//  453  *                 HAL_KEY_SW_2
//  454  *                 HAL_KEY_SW_1
//  455  *
//  456  * @return  none
//  457  */

        RSEG BANKED_CODE:CODE:NOROOT(0)
//  458 static void GenericApp_HandleKeys( uint8 shift, uint8 keys )
GenericApp_HandleKeys:
          CFI Block cfiBlock6 Using cfiCommon0
          CFI Function GenericApp_HandleKeys
        CODE
//  459 {
        FUNCALL GenericApp_HandleKeys, HalLedSet
        LOCFRAME ISTACK, 0, STACK
        LOCFRAME PSTACK, 0, STACK
        LOCFRAME XSTACK, 21, STACK
        LOCFRAME IOVERLAY, 0, STATIC
        LOCFRAME DOVERLAY, 0, STATIC
        ARGFRAME ISTACK, 0, STACK
        ARGFRAME PSTACK, 0, STACK
        ARGFRAME XSTACK, 21, STACK
        ARGFRAME IOVERLAY, 0, STATIC
        ARGFRAME DOVERLAY, 0, STATIC
        FUNCALL GenericApp_HandleKeys, NLME_GetShortAddr
        LOCFRAME ISTACK, 0, STACK
        LOCFRAME PSTACK, 0, STACK
        LOCFRAME XSTACK, 21, STACK
        LOCFRAME IOVERLAY, 0, STATIC
        LOCFRAME DOVERLAY, 0, STATIC
        ARGFRAME ISTACK, 0, STACK
        ARGFRAME PSTACK, 0, STACK
        ARGFRAME XSTACK, 21, STACK
        ARGFRAME IOVERLAY, 0, STATIC
        ARGFRAME DOVERLAY, 0, STATIC
        FUNCALL GenericApp_HandleKeys, ZDP_EndDeviceBindReq
        LOCFRAME ISTACK, 0, STACK
        LOCFRAME PSTACK, 0, STACK
        LOCFRAME XSTACK, 30, STACK
        LOCFRAME IOVERLAY, 0, STATIC
        LOCFRAME DOVERLAY, 0, STATIC
        ARGFRAME ISTACK, 0, STACK
        ARGFRAME PSTACK, 0, STACK
        ARGFRAME XSTACK, 30, STACK
        ARGFRAME IOVERLAY, 0, STATIC
        ARGFRAME DOVERLAY, 0, STATIC
        FUNCALL GenericApp_HandleKeys, HalLedSet
        LOCFRAME ISTACK, 0, STACK
        LOCFRAME PSTACK, 0, STACK
        LOCFRAME XSTACK, 21, STACK
        LOCFRAME IOVERLAY, 0, STATIC
        LOCFRAME DOVERLAY, 0, STATIC
        ARGFRAME ISTACK, 0, STACK
        ARGFRAME PSTACK, 0, STACK
        ARGFRAME XSTACK, 21, STACK
        ARGFRAME IOVERLAY, 0, STATIC
        ARGFRAME DOVERLAY, 0, STATIC
        FUNCALL GenericApp_HandleKeys, ZDP_MatchDescReq
        LOCFRAME ISTACK, 0, STACK
        LOCFRAME PSTACK, 0, STACK
        LOCFRAME XSTACK, 29, STACK
        LOCFRAME IOVERLAY, 0, STATIC
        LOCFRAME DOVERLAY, 0, STATIC
        ARGFRAME ISTACK, 0, STACK
        ARGFRAME PSTACK, 0, STACK
        ARGFRAME XSTACK, 29, STACK
        ARGFRAME IOVERLAY, 0, STATIC
        ARGFRAME DOVERLAY, 0, STATIC
        REQUIRE ?V0
        REQUIRE ?V1
        REQUIRE ?V2
        REQUIRE ?V3
        MOV     A,#-0xc
        LCALL   ?BANKED_ENTER_XDATA
          CFI DPH0 load(1, XDATA, add(CFA_XSP16, literal(-1)))
          CFI DPL0 load(1, XDATA, add(CFA_XSP16, literal(-2)))
          CFI ?BRET_EXT load(1, XDATA, add(CFA_XSP16, literal(-3)))
          CFI ?RET_HIGH load(1, XDATA, add(CFA_XSP16, literal(-4)))
          CFI ?RET_LOW load(1, XDATA, add(CFA_XSP16, literal(-5)))
          CFI R7 load(1, XDATA, add(CFA_XSP16, literal(-6)))
          CFI V3 load(1, XDATA, add(CFA_XSP16, literal(-7)))
          CFI V2 load(1, XDATA, add(CFA_XSP16, literal(-8)))
          CFI V1 load(1, XDATA, add(CFA_XSP16, literal(-9)))
          CFI V0 load(1, XDATA, add(CFA_XSP16, literal(-10)))
          CFI VB load(1, XDATA, add(CFA_XSP16, literal(-11)))
          CFI R6 load(1, XDATA, add(CFA_XSP16, literal(-12)))
          CFI CFA_SP SP+0
          CFI CFA_XSP16 add(XSP16, 12)
        ; Saved register size: 12
        ; Auto size: 9
        MOV     A,#-0x9
        LCALL   ?ALLOC_XSTACK8
          CFI CFA_XSP16 add(XSP16, 21)
        MOV     A,R1
        MOV     R6,A
        MOV     A,R2
        MOV     R7,A
//  460   zAddrType_t dstAddr;
//  461 
//  462   // Shift is used to make each button/switch dual purpose.
//  463   if ( shift )
        MOV     A,R6
        JZ      $+5
        LJMP    ??GenericApp_HandleKeys_0 & 0xFFFF
//  464   {
//  465     if ( keys & HAL_KEY_SW_1 )
//  466     {
//  467     }
//  468     if ( keys & HAL_KEY_SW_2 )
//  469     {
//  470     }
//  471     if ( keys & HAL_KEY_SW_3 )
//  472     {
//  473     }
//  474     if ( keys & HAL_KEY_SW_4 )
//  475     {
//  476     }
//  477   }
//  478   else
//  479   {
//  480     if ( keys & HAL_KEY_SW_1 )
        MOV     A,R7
        MOV     C,0xE0 /* A   */.0
        JNC     ??GenericApp_HandleKeys_1
//  481     {
//  482 #if defined( SWITCH1_BIND )
//  483       // We can use SW1 to simulate SW2 for devices that only have one switch,
//  484       keys |= HAL_KEY_SW_2;
//  485 #elif defined( SWITCH1_MATCH )
//  486       // or use SW1 to simulate SW4 for devices that only have one switch
//  487       keys |= HAL_KEY_SW_4;
//  488 #else
//  489       // Normally, SW1 changes the rate that messages are sent
//  490       if ( txMsgDelay > 100 )
        MOV     DPTR,#__Constant_65
        MOV     R0,#?V0
        LCALL   ?L_MOV_X
        MOV     DPTR,#txMsgDelay
        MOV     R0,#?V0
        LCALL   ?UL_GT_X
        MOV     DPTR,#txMsgDelay
        JC      ??GenericApp_HandleKeys_2
//  491       {
//  492         // Cut the message TX delay in half
//  493         txMsgDelay /= 2;
        MOV     R0,#?V0
        LCALL   ?L_MOV_X
        MOV     A,#0x1
        MOV     R0,#?V0
        LCALL   ?UL_SHR
        MOV     DPTR,#txMsgDelay
        MOV     R0,#?V0
        LCALL   ?L_MOV_TO_X
        SJMP    ??GenericApp_HandleKeys_1
//  494       }
//  495       else
//  496       {
//  497         // Reset to the default
//  498         txMsgDelay = GENERICAPP_SEND_MSG_TIMEOUT;
??GenericApp_HandleKeys_2:
        MOV     A,#-0x38
        MOVX    @DPTR,A
        INC     DPTR
        MOV     A,#-0x51
        MOVX    @DPTR,A
        INC     DPTR
        CLR     A
        MOVX    @DPTR,A
        INC     DPTR
        MOVX    @DPTR,A
//  499       }
//  500 #endif
//  501     }
//  502 
//  503     if ( keys & HAL_KEY_SW_2 )
??GenericApp_HandleKeys_1:
        MOV     A,R7
        MOV     C,0xE0 /* A   */.1
        JNC     ??GenericApp_HandleKeys_3
//  504     {
//  505       HalLedSet ( HAL_LED_4, HAL_LED_MODE_OFF );
        ; Setup parameters for call to function HalLedSet
        MOV     R2,#0x0
        MOV     R1,#0x8
        LCALL   `??HalLedSet::?relay`; Banked call to: HalLedSet
//  506 
//  507       // Initiate an End Device Bind Request for the mandatory endpoint
//  508       dstAddr.addrMode = Addr16Bit;
        MOV     A,#0x8
        LCALL   ?XSTACK_DISP0_8
        MOV     A,#0x2
        LCALL   ?Subroutine2 & 0xFFFF
//  509       dstAddr.addr.shortAddr = 0x0000; // Coordinator
//  510       ZDP_EndDeviceBindReq( &dstAddr, NLME_GetShortAddr(),
//  511                             GenericApp_epDesc.endPoint,
//  512                             GENERICAPP_PROFID,
//  513                             GENERICAPP_MAX_CLUSTERS, (cId_t *)GenericApp_ClusterList,
//  514                             GENERICAPP_MAX_CLUSTERS, (cId_t *)GenericApp_ClusterList,
//  515                             FALSE );
??CrossCallReturnLabel_0:
        ; Setup parameters for call to function NLME_GetShortAddr
        LCALL   `??NLME_GetShortAddr::?relay`; Banked call to: NLME_GetShortAddr
        MOV     ?V0,R2
        MOV     ?V1,R3
        MOV     R4,?V0
        MOV     R5,?V1
        MOV     ?V0,#GenericApp_ClusterList & 0xff
        MOV     ?V1,#(GenericApp_ClusterList >> 8) & 0xff
        ; Setup parameters for call to function ZDP_EndDeviceBindReq
        MOV     ?V2,#0x0
        MOV     R0,#?V2
        LCALL   ?PUSH_XSTACK_I_ONE
          CFI CFA_XSP16 add(XSP16, 22)
        MOV     R0,#?V0
        LCALL   ?PUSH_XSTACK_I_TWO
          CFI CFA_XSP16 add(XSP16, 24)
        MOV     ?V2,#0x1
        MOV     R0,#?V2
        LCALL   ?PUSH_XSTACK_I_ONE
          CFI CFA_XSP16 add(XSP16, 25)
        MOV     R0,#?V0
        LCALL   ?PUSH_XSTACK_I_TWO
          CFI CFA_XSP16 add(XSP16, 27)
        MOV     ?V0,#0x1
        MOV     R0,#?V0
        LCALL   ?PUSH_XSTACK_I_ONE
          CFI CFA_XSP16 add(XSP16, 28)
        MOV     ?V0,#0x4
        MOV     ?V1,#0xf
        MOV     R0,#?V0
        LCALL   ?PUSH_XSTACK_I_TWO
          CFI CFA_XSP16 add(XSP16, 30)
        MOV     DPTR,#GenericApp_epDesc
        MOVX    A,@DPTR
        MOV     R1,A
        MOV     A,#0x9
        LCALL   ?XSTACK_DISP101_8
        LCALL   `??ZDP_EndDeviceBindReq::?relay`; Banked call to: ZDP_EndDeviceBindReq
        MOV     A,#0x9
        LCALL   ?DEALLOC_XSTACK8
          CFI CFA_XSP16 add(XSP16, 21)
//  516     }
//  517 
//  518     if ( keys & HAL_KEY_SW_3 )
//  519     {
//  520     }
//  521 
//  522     if ( keys & HAL_KEY_SW_4 )
??GenericApp_HandleKeys_3:
        MOV     A,R7
        MOV     C,0xE0 /* A   */.3
        JNC     ??GenericApp_HandleKeys_0
//  523     {
//  524       HalLedSet ( HAL_LED_4, HAL_LED_MODE_OFF );
        ; Setup parameters for call to function HalLedSet
        MOV     R2,#0x0
        MOV     R1,#0x8
        LCALL   `??HalLedSet::?relay`; Banked call to: HalLedSet
//  525       // Initiate a Match Description Request (Service Discovery)
//  526       dstAddr.addrMode = AddrBroadcast;
        MOV     A,#0x8
        LCALL   ?XSTACK_DISP0_8
        MOV     A,#0xf
        MOVX    @DPTR,A
//  527       dstAddr.addr.shortAddr = NWK_BROADCAST_SHORTADDR;
        MOV     DPL,?XSP + 0
        MOV     DPH,?XSP + 1
        MOV     A,#-0x1
        MOVX    @DPTR,A
        INC     DPTR
        MOVX    @DPTR,A
//  528       ZDP_MatchDescReq( &dstAddr, NWK_BROADCAST_SHORTADDR,
//  529                         GENERICAPP_PROFID,
//  530                         GENERICAPP_MAX_CLUSTERS, (cId_t *)GenericApp_ClusterList,
//  531                         GENERICAPP_MAX_CLUSTERS, (cId_t *)GenericApp_ClusterList,
//  532                         FALSE );
        MOV     ?V0,#GenericApp_ClusterList & 0xff
        MOV     ?V1,#(GenericApp_ClusterList >> 8) & 0xff
        ; Setup parameters for call to function ZDP_MatchDescReq
        MOV     ?V2,#0x0
        MOV     R0,#?V2
        LCALL   ?PUSH_XSTACK_I_ONE
          CFI CFA_XSP16 add(XSP16, 22)
        MOV     R0,#?V0
        LCALL   ?PUSH_XSTACK_I_TWO
          CFI CFA_XSP16 add(XSP16, 24)
        MOV     ?V2,#0x1
        MOV     R0,#?V2
        LCALL   ?PUSH_XSTACK_I_ONE
          CFI CFA_XSP16 add(XSP16, 25)
        MOV     R0,#?V0
        LCALL   ?PUSH_XSTACK_I_TWO
          CFI CFA_XSP16 add(XSP16, 27)
        MOV     ?V0,#0x4
        MOV     ?V1,#0xf
        MOV     R0,#?V0
        LCALL   ?PUSH_XSTACK_I_TWO
          CFI CFA_XSP16 add(XSP16, 29)
        MOV     R1,#0x1
        MOV     R4,#-0x1
        MOV     R5,#-0x1
        MOV     A,#0x8
        LCALL   ?XSTACK_DISP101_8
        LCALL   `??ZDP_MatchDescReq::?relay`; Banked call to: ZDP_MatchDescReq
        MOV     A,#0x8
        LCALL   ?DEALLOC_XSTACK8
          CFI CFA_XSP16 add(XSP16, 21)
//  533     }
//  534   }
//  535 }
??GenericApp_HandleKeys_0:
        MOV     A,#0x9
        LCALL   ?DEALLOC_XSTACK8
          CFI CFA_XSP16 add(XSP16, 12)
        LJMP    ?Subroutine0 & 0xFFFF
          CFI EndBlock cfiBlock6
//  536 
//  537 /*********************************************************************
//  538  * LOCAL FUNCTIONS
//  539  */
//  540 
//  541 /*********************************************************************
//  542  * @fn      GenericApp_MessageMSGCB
//  543  *
//  544  * @brief   Data message processor callback.  This function processes
//  545  *          any incoming data - probably from other devices.  So, based
//  546  *          on cluster ID, perform the intended action.
//  547  *
//  548  * @param   none
//  549  *
//  550  * @return  none
//  551  */
//  552 static void GenericApp_MessageMSGCB( afIncomingMSGPacket_t *pkt )
//  553 {
//  554   switch ( pkt->clusterId )
//  555   {
//  556     case GENERICAPP_CLUSTERID:
//  557       rxMsgCount += 1;  // Count this message
//  558       HalLedSet ( HAL_LED_4, HAL_LED_MODE_BLINK );  // Blink an LED
//  559 //#ifdef DEBUG_UART
//  560 //  DBG_PRINTF((char*)pkt->cmd.Data);
//  561 //  DBG_PRINTF("\r\n");
//  562 //#endif
//  563 //#ifdef DEBUG_UART
//  564 //  DBG_PRINTF_VALUE("Rcvd:", rxMsgCount,16) 
//  565 //  DBG_PRINTF("\r\n");
//  566 //#endif
//  567 #if defined( LCD_SUPPORTED )
//  568       HalLcdWriteString( (char*)pkt->cmd.Data, HAL_LCD_LINE_1 );
//  569       HalLcdWriteStringValue( "Rcvd:", rxMsgCount, 10, HAL_LCD_LINE_2 );
//  570 #elif defined( WIN32 )
//  571       WPRINTSTR( pkt->cmd.Data );
//  572 #endif
//  573       break;
//  574   }
//  575 }
//  576 
//  577 /*********************************************************************
//  578  * @fn      GenericApp_SendTheMessage
//  579  *
//  580  * @brief   Send "the" message.
//  581  *
//  582  * @param   none
//  583  *
//  584  * @return  none
//  585  */
//  586 #ifndef  SHT10
//  587 #define  SHT10
//  588 #endif

        RSEG BANKED_CODE:CODE:NOROOT(0)
//  589 static void GenericApp_SendTheMessage( void )
GenericApp_SendTheMessage:
          CFI Block cfiBlock7 Using cfiCommon0
          CFI Function GenericApp_SendTheMessage
        CODE
//  590 {
        FUNCALL GenericApp_SendTheMessage, sht_read
        LOCFRAME ISTACK, 0, STACK
        LOCFRAME PSTACK, 0, STACK
        LOCFRAME XSTACK, 105, STACK
        LOCFRAME IOVERLAY, 0, STATIC
        LOCFRAME DOVERLAY, 0, STATIC
        ARGFRAME ISTACK, 0, STACK
        ARGFRAME PSTACK, 0, STACK
        ARGFRAME XSTACK, 105, STACK
        ARGFRAME IOVERLAY, 0, STATIC
        ARGFRAME DOVERLAY, 0, STATIC
        FUNCALL GenericApp_SendTheMessage, get_ieee_string
        LOCFRAME ISTACK, 0, STACK
        LOCFRAME PSTACK, 0, STACK
        LOCFRAME XSTACK, 105, STACK
        LOCFRAME IOVERLAY, 0, STATIC
        LOCFRAME DOVERLAY, 0, STATIC
        ARGFRAME ISTACK, 0, STACK
        ARGFRAME PSTACK, 0, STACK
        ARGFRAME XSTACK, 105, STACK
        ARGFRAME IOVERLAY, 0, STATIC
        ARGFRAME DOVERLAY, 0, STATIC
        FUNCALL GenericApp_SendTheMessage, sprintf
        LOCFRAME ISTACK, 0, STACK
        LOCFRAME PSTACK, 0, STACK
        LOCFRAME XSTACK, 115, STACK
        LOCFRAME IOVERLAY, 0, STATIC
        LOCFRAME DOVERLAY, 0, STATIC
        ARGFRAME ISTACK, 0, STACK
        ARGFRAME PSTACK, 0, STACK
        ARGFRAME XSTACK, 115, STACK
        ARGFRAME IOVERLAY, 0, STATIC
        ARGFRAME DOVERLAY, 0, STATIC
        FUNCALL GenericApp_SendTheMessage, sprintf
        LOCFRAME ISTACK, 0, STACK
        LOCFRAME PSTACK, 0, STACK
        LOCFRAME XSTACK, 105, STACK
        LOCFRAME IOVERLAY, 0, STATIC
        LOCFRAME DOVERLAY, 0, STATIC
        ARGFRAME ISTACK, 0, STACK
        ARGFRAME PSTACK, 0, STACK
        ARGFRAME XSTACK, 105, STACK
        ARGFRAME IOVERLAY, 0, STATIC
        ARGFRAME DOVERLAY, 0, STATIC
        FUNCALL GenericApp_SendTheMessage, uart_put_string
        LOCFRAME ISTACK, 0, STACK
        LOCFRAME PSTACK, 0, STACK
        LOCFRAME XSTACK, 105, STACK
        LOCFRAME IOVERLAY, 0, STATIC
        LOCFRAME DOVERLAY, 0, STATIC
        ARGFRAME ISTACK, 0, STACK
        ARGFRAME PSTACK, 0, STACK
        ARGFRAME XSTACK, 105, STACK
        ARGFRAME IOVERLAY, 0, STATIC
        ARGFRAME DOVERLAY, 0, STATIC
        FUNCALL GenericApp_SendTheMessage, uart_put_string_value
        LOCFRAME ISTACK, 0, STACK
        LOCFRAME PSTACK, 0, STACK
        LOCFRAME XSTACK, 105, STACK
        LOCFRAME IOVERLAY, 0, STATIC
        LOCFRAME DOVERLAY, 0, STATIC
        ARGFRAME ISTACK, 0, STACK
        ARGFRAME PSTACK, 0, STACK
        ARGFRAME XSTACK, 105, STACK
        ARGFRAME IOVERLAY, 0, STATIC
        ARGFRAME DOVERLAY, 0, STATIC
        FUNCALL GenericApp_SendTheMessage, osal_strlen
        LOCFRAME ISTACK, 0, STACK
        LOCFRAME PSTACK, 0, STACK
        LOCFRAME XSTACK, 105, STACK
        LOCFRAME IOVERLAY, 0, STATIC
        LOCFRAME DOVERLAY, 0, STATIC
        ARGFRAME ISTACK, 0, STACK
        ARGFRAME PSTACK, 0, STACK
        ARGFRAME XSTACK, 105, STACK
        ARGFRAME IOVERLAY, 0, STATIC
        ARGFRAME DOVERLAY, 0, STATIC
        FUNCALL GenericApp_SendTheMessage, AF_DataRequest
        LOCFRAME ISTACK, 0, STACK
        LOCFRAME PSTACK, 0, STACK
        LOCFRAME XSTACK, 114, STACK
        LOCFRAME IOVERLAY, 0, STATIC
        LOCFRAME DOVERLAY, 0, STATIC
        ARGFRAME ISTACK, 0, STACK
        ARGFRAME PSTACK, 0, STACK
        ARGFRAME XSTACK, 114, STACK
        ARGFRAME IOVERLAY, 0, STATIC
        ARGFRAME DOVERLAY, 0, STATIC
        FUNCALL GenericApp_SendTheMessage, uart_put_string_value
        LOCFRAME ISTACK, 0, STACK
        LOCFRAME PSTACK, 0, STACK
        LOCFRAME XSTACK, 105, STACK
        LOCFRAME IOVERLAY, 0, STATIC
        LOCFRAME DOVERLAY, 0, STATIC
        ARGFRAME ISTACK, 0, STACK
        ARGFRAME PSTACK, 0, STACK
        ARGFRAME XSTACK, 105, STACK
        ARGFRAME IOVERLAY, 0, STATIC
        ARGFRAME DOVERLAY, 0, STATIC
        FUNCALL GenericApp_SendTheMessage, Onboard_soft_reset
        LOCFRAME ISTACK, 0, STACK
        LOCFRAME PSTACK, 0, STACK
        LOCFRAME XSTACK, 105, STACK
        LOCFRAME IOVERLAY, 0, STATIC
        LOCFRAME DOVERLAY, 0, STATIC
        ARGFRAME ISTACK, 0, STACK
        ARGFRAME PSTACK, 0, STACK
        ARGFRAME XSTACK, 105, STACK
        ARGFRAME IOVERLAY, 0, STATIC
        ARGFRAME DOVERLAY, 0, STATIC
        REQUIRE ?V0
        REQUIRE ?V1
        MOV     A,#-0xa
        LCALL   ?BANKED_ENTER_XDATA
          CFI DPH0 load(1, XDATA, add(CFA_XSP16, literal(-1)))
          CFI DPL0 load(1, XDATA, add(CFA_XSP16, literal(-2)))
          CFI ?BRET_EXT load(1, XDATA, add(CFA_XSP16, literal(-3)))
          CFI ?RET_HIGH load(1, XDATA, add(CFA_XSP16, literal(-4)))
          CFI ?RET_LOW load(1, XDATA, add(CFA_XSP16, literal(-5)))
          CFI R7 load(1, XDATA, add(CFA_XSP16, literal(-6)))
          CFI V1 load(1, XDATA, add(CFA_XSP16, literal(-7)))
          CFI V0 load(1, XDATA, add(CFA_XSP16, literal(-8)))
          CFI VB load(1, XDATA, add(CFA_XSP16, literal(-9)))
          CFI R6 load(1, XDATA, add(CFA_XSP16, literal(-10)))
          CFI CFA_SP SP+0
          CFI CFA_XSP16 add(XSP16, 10)
        ; Saved register size: 10
        ; Auto size: 95
        MOV     A,#-0x5f
        LCALL   ?ALLOC_XSTACK8
          CFI CFA_XSP16 add(XSP16, 105)
//  591   static uint8 count_fail = 0;
//  592   char buf[70];
//  593   char ieee_string[17]; /* 16 char MAC + 1 for NUL*/
//  594   float nhiet_do = 50;
        MOV     A,#0x4
        LCALL   ?XSTACK_DISP0_8
        CLR     A
        MOVX    @DPTR,A
        INC     DPTR
        MOVX    @DPTR,A
        INC     DPTR
        MOV     A,#0x48
        MOVX    @DPTR,A
        INC     DPTR
        MOV     A,#0x42
        LCALL   ?Subroutine2 & 0xFFFF
//  595    float do_am = 90;
??CrossCallReturnLabel_1:
        INC     DPTR
        MOV     A,#-0x4c
        MOVX    @DPTR,A
        INC     DPTR
        MOV     A,#0x42
        MOVX    @DPTR,A
//  596    //char  buf[6] = "Hello";
//  597   afStatus_t sentStatus;
//  598 #ifdef SHT10
//  599  sht_read(&nhiet_do, &do_am);
        ; Setup parameters for call to function sht_read
        MOV     R4,?XSP + 0
        MOV     R5,?XSP + 1
        MOV     A,#0x4
        LCALL   ?XSTACK_DISP101_8
        LCALL   `??sht_read::?relay` ; Banked call to: sht_read
//  600 #endif
//  601   get_ieee_string(ieee_string);
        ; Setup parameters for call to function get_ieee_string
        MOV     A,#0x8
        LCALL   ?XSTACK_DISP101_8
        LCALL   `??get_ieee_string::?relay`; Banked call to: get_ieee_string
//  602   sprintf(buf, "{\"node\":\"%s\",\"temp\":\"%.2f\",\"humi\":\"%.2f\"}",ieee_string, (float)nhiet_do, (float)do_am);
        ; Setup parameters for call to function sprintf
        MOV     DPL,?XSP + 0
        MOV     DPH,?XSP + 1
        LCALL   ?PUSH_XSTACK8_X_FOUR
          CFI CFA_XSP16 add(XSP16, 109)
        MOV     A,#0x8
        LCALL   ?XSTACK_DISP0_8
        LCALL   ?PUSH_XSTACK8_X_FOUR
          CFI CFA_XSP16 add(XSP16, 113)
        MOV     A,#0x10
        LCALL   ?XSTACK_DISP100_8
        MOV     ?V0,R0
        MOV     ?V1,R1
        MOV     R0,#?V0
        LCALL   ?PUSH_XSTACK_I_TWO
          CFI CFA_XSP16 add(XSP16, 115)
        MOV     R4,#`?<Constant "{\\"node\\":\\"%s\\",\\"temp\\":\\"...">` & 0xff
        MOV     R5,#(`?<Constant "{\\"node\\":\\"%s\\",\\"temp\\":\\"...">` >> 8) & 0xff
        MOV     A,#0x23
        LCALL   ?XSTACK_DISP101_8
        LCALL   `??sprintf::?relay`  ; Banked call to: sprintf
        MOV     A,#0xa
        LCALL   ?DEALLOC_XSTACK8
          CFI CFA_XSP16 add(XSP16, 105)
//  603   sprintf(buf,"Hello");
        ; Setup parameters for call to function sprintf
        MOV     R4,#`?<Constant "Hello">` & 0xff
        MOV     R5,#(`?<Constant "Hello">` >> 8) & 0xff
        MOV     A,#0x19
        LCALL   ?XSTACK_DISP101_8
        LCALL   `??sprintf::?relay`  ; Banked call to: sprintf
//  604   DBG_PRINTF(buf);
        ; Setup parameters for call to function uart_put_string
        MOV     A,#0x19
        LCALL   ?XSTACK_DISP101_8
        LCALL   `??uart_put_string::?relay`; Banked call to: uart_put_string
//  605   GenericApp_DstAddr.addrMode = (afAddrMode_t)Addr16Bit;
        MOV     DPTR,#GenericApp_DstAddr + 8
        MOV     A,#0x2
        MOVX    @DPTR,A
//  606   // network addr of ZC is 0
//  607   GenericApp_DstAddr.addr.shortAddr = 0;
        MOV     DPTR,#GenericApp_DstAddr
        CLR     A
        MOVX    @DPTR,A
        INC     DPTR
        MOVX    @DPTR,A
//  608   // endpoint of app on zc
//  609   GenericApp_DstAddr.endPoint = 10;
        MOV     DPTR,#GenericApp_DstAddr + 9
        MOV     A,#0xa
        MOVX    @DPTR,A
//  610   DBG_PRINTF_VALUE("\r\n[Send]TransID:", GenericApp_TransID, 10);
        ; Setup parameters for call to function uart_put_string_value
        MOV     R1,A
        MOV     DPTR,#GenericApp_TransID
        MOVX    A,@DPTR
        MOV     R4,A
        MOV     R5,#0x0
        MOV     R2,#`?<Constant "\\r\\n[Send]TransID:">` & 0xff
        MOV     R3,#(`?<Constant "\\r\\n[Send]TransID:">` >> 8) & 0xff
        LCALL   `??uart_put_string_value::?relay`; Banked call to: uart_put_string_value
//  611   sentStatus = AF_DataRequest( &GenericApp_DstAddr, &GenericApp_epDesc,
//  612                               GENERICAPP_CLUSTERID,
//  613                               (byte)osal_strlen( buf ) + 1,
//  614                               (byte *)&buf,
//  615                               &GenericApp_TransID,
//  616                               AF_DISCV_ROUTE, AF_DEFAULT_RADIUS ) ;
        ; Setup parameters for call to function osal_strlen
        MOV     A,#0x19
        LCALL   ?XSTACK_DISP101_8
        LCALL   `??osal_strlen::?relay`; Banked call to: osal_strlen
        ; Setup parameters for call to function AF_DataRequest
        MOV     ?V0,#0x1e
        MOV     R0,#?V0
        LCALL   ?PUSH_XSTACK_I_ONE
          CFI CFA_XSP16 add(XSP16, 106)
        MOV     ?V0,#GenericApp_TransID & 0xff
        MOV     ?V1,#(GenericApp_TransID >> 8) & 0xff
        MOV     R0,#?V0
        LCALL   ?PUSH_XSTACK_I_TWO
          CFI CFA_XSP16 add(XSP16, 108)
        MOV     A,#0x1c
        LCALL   ?XSTACK_DISP100_8
        MOV     ?V0,R0
        MOV     ?V1,R1
        MOV     R0,#?V0
        LCALL   ?PUSH_XSTACK_I_TWO
          CFI CFA_XSP16 add(XSP16, 110)
        MOV     A,R2
        ADD     A,#0x1
        MOV     ?V0,A
        CLR     A
        ADDC    A,#0x0
        MOV     ?V1,A
        MOV     R0,#?V0
        LCALL   ?PUSH_XSTACK_I_TWO
          CFI CFA_XSP16 add(XSP16, 112)
        MOV     ?V0,#0x1
        MOV     ?V1,#0x0
        MOV     R0,#?V0
        LCALL   ?PUSH_XSTACK_I_TWO
          CFI CFA_XSP16 add(XSP16, 114)
        MOV     R1,#0x0
        MOV     R4,#GenericApp_epDesc & 0xff
        MOV     R5,#(GenericApp_epDesc >> 8) & 0xff
        MOV     R2,#GenericApp_DstAddr & 0xff
        MOV     R3,#(GenericApp_DstAddr >> 8) & 0xff
        LCALL   `??AF_DataRequest::?relay`; Banked call to: AF_DataRequest
        MOV     A,#0x9
        LCALL   ?DEALLOC_XSTACK8
          CFI CFA_XSP16 add(XSP16, 105)
        MOV     A,R1
        MOV     R4,A
//  617   if (sentStatus== afStatus_SUCCESS )
        JZ      ??GenericApp_SendTheMessage_0
//  618   {
//  619   //Successfully requested to be sent.
//  620   }
//  621   else
//  622   {
//  623     DBG_PRINTF_VALUE("\r\nSend msg fail:", sentStatus, 16);
        ; Setup parameters for call to function uart_put_string_value
        MOV     R1,#0x10
        MOV     R5,#0x0
        MOV     R2,#`?<Constant "\\r\\nSend msg fail:">` & 0xff
        MOV     R3,#(`?<Constant "\\r\\nSend msg fail:">` >> 8) & 0xff
        LCALL   `??uart_put_string_value::?relay`; Banked call to: uart_put_string_value
//  624     count_fail++;
        MOV     DPTR,#??count_fail
        MOVX    A,@DPTR
        INC     A
        MOVX    @DPTR,A
//  625     if (count_fail >= 10) {
        CLR     C
        SUBB    A,#0xa
        JC      ??GenericApp_SendTheMessage_0
//  626       Onboard_soft_reset();
        ; Setup parameters for call to function Onboard_soft_reset
        LCALL   Onboard_soft_reset & 0xFFFF
//  627     }
//  628     // Error occurred in request to send.
//  629   }
//  630 
//  631 }
??GenericApp_SendTheMessage_0:
        MOV     A,#0x5f
        LJMP    ?Subroutine1 & 0xFFFF
          CFI EndBlock cfiBlock7

        RSEG BANKED_CODE:CODE:NOROOT(0)
?Subroutine2:
          CFI Block cfiCond8 Using cfiCommon0
          CFI Function GenericApp_HandleKeys
          CFI Conditional ??CrossCallReturnLabel_0
          CFI R6 load(1, XDATA, add(CFA_XSP16, literal(-12)))
          CFI VB load(1, XDATA, add(CFA_XSP16, literal(-11)))
          CFI V0 load(1, XDATA, add(CFA_XSP16, literal(-10)))
          CFI V1 load(1, XDATA, add(CFA_XSP16, literal(-9)))
          CFI V2 load(1, XDATA, add(CFA_XSP16, literal(-8)))
          CFI V3 load(1, XDATA, add(CFA_XSP16, literal(-7)))
          CFI R7 load(1, XDATA, add(CFA_XSP16, literal(-6)))
          CFI ?RET_LOW load(1, XDATA, add(CFA_XSP16, literal(-5)))
          CFI ?RET_HIGH load(1, XDATA, add(CFA_XSP16, literal(-4)))
          CFI ?BRET_EXT load(1, XDATA, add(CFA_XSP16, literal(-3)))
          CFI DPL0 load(1, XDATA, add(CFA_XSP16, literal(-2)))
          CFI DPH0 load(1, XDATA, add(CFA_XSP16, literal(-1)))
          CFI CFA_SP SP+-2
          CFI CFA_XSP16 add(XSP16, 21)
          CFI Block cfiCond9 Using cfiCommon0
          CFI (cfiCond9) Function GenericApp_SendTheMessage
          CFI (cfiCond9) Conditional ??CrossCallReturnLabel_1
          CFI (cfiCond9) R6 load(1, XDATA, add(CFA_XSP16, literal(-10)))
          CFI (cfiCond9) VB load(1, XDATA, add(CFA_XSP16, literal(-9)))
          CFI (cfiCond9) V0 load(1, XDATA, add(CFA_XSP16, literal(-8)))
          CFI (cfiCond9) V1 load(1, XDATA, add(CFA_XSP16, literal(-7)))
          CFI (cfiCond9) R7 load(1, XDATA, add(CFA_XSP16, literal(-6)))
          CFI (cfiCond9) ?RET_LOW load(1, XDATA, add(CFA_XSP16, literal(-5)))
          CFI (cfiCond9) ?RET_HIGH load(1, XDATA, add(CFA_XSP16, literal(-4)))
          CFI (cfiCond9) ?BRET_EXT load(1, XDATA, add(CFA_XSP16, literal(-3)))
          CFI (cfiCond9) DPL0 load(1, XDATA, add(CFA_XSP16, literal(-2)))
          CFI (cfiCond9) DPH0 load(1, XDATA, add(CFA_XSP16, literal(-1)))
          CFI (cfiCond9) CFA_SP SP+-2
          CFI (cfiCond9) CFA_XSP16 add(XSP16, 105)
          CFI Block cfiPicker10 Using cfiCommon1
          CFI (cfiPicker10) NoFunction
          CFI (cfiPicker10) Picker
        MOVX    @DPTR,A
        MOV     DPL,?XSP + 0
        MOV     DPH,?XSP + 1
        CLR     A
        MOVX    @DPTR,A
        INC     DPTR
        MOVX    @DPTR,A
        RET
          CFI (cfiCond8) CFA_SP SP+0
          CFI (cfiCond9) CFA_SP SP+0
          CFI (cfiPicker10) CFA_SP SP+0
          CFI EndBlock cfiCond8
          CFI EndBlock cfiCond9
          CFI EndBlock cfiPicker10

        RSEG XDATA_Z:XDATA:NOROOT(0)
        DATA8
??count_fail:
        DS 1
        REQUIRE __INIT_XDATA_Z

        RSEG XDATA_ID:CODE:NOROOT(0)
`?<Initializer for txMsgDelay>`:
        DATA32
        DD 45000

        RSEG BANK_RELAYS:CODE:REORDER:NOROOT(0)
`??uart_callback::?relay`:
        CODE
        LCALL   ?BDISPATCH
        DATA24
        DC24    uart_callback

        RSEG BANK_RELAYS:CODE:REORDER:NOROOT(0)
`??GenericApp_Init::?relay`:
        CODE
        LCALL   ?BDISPATCH
        DATA24
        DC24    GenericApp_Init

        RSEG BANK_RELAYS:CODE:REORDER:NOROOT(0)
`??GenericApp_ProcessEvent::?relay`:
        CODE
        LCALL   ?BDISPATCH
        DATA24
        DC24    GenericApp_ProcessEvent

        RSEG BANK_RELAYS:CODE:REORDER:NOROOT(0)
`??GenericApp_ProcessZDOMsgs::?relay`:
        CODE
        LCALL   ?BDISPATCH
        DATA24
        DC24    GenericApp_ProcessZDOMsgs

        RSEG BANK_RELAYS:CODE:REORDER:NOROOT(0)
`??GenericApp_HandleKeys::?relay`:
        CODE
        LCALL   ?BDISPATCH
        DATA24
        DC24    GenericApp_HandleKeys

        RSEG BANK_RELAYS:CODE:REORDER:NOROOT(0)
`??GenericApp_SendTheMessage::?relay`:
        CODE
        LCALL   ?BDISPATCH
        DATA24
        DC24    GenericApp_SendTheMessage

        RSEG XDATA_ROM_C:CONST:REORDER:NOROOT(0)
        DATA8
`?<Constant "Firmware designed by:...">`:
        DB "Firmware designed by: sangvv\015\012"

        RSEG XDATA_ROM_C:CONST:REORDER:NOROOT(0)
        DATA8
`?<Constant "GenericApp">`:
        DB "GenericApp"

        RSEG XDATA_ROM_C:CONST:REORDER:NOROOT(0)
        DATA8
`?<Constant "\\r\\nSend msg fail:">`:
        DB "\015\012Send msg fail:"

        RSEG XDATA_ROM_C:CONST:REORDER:NOROOT(0)
        DATA8
`?<Constant "\\r\\nSend msg success\\r\\n">`:
        DB "\015\012Send msg success\015\012"

        RSEG XDATA_ROM_C:CONST:REORDER:NOROOT(0)
        DATA8
`?<Constant "\\r\\n ZDO change state\\r\\n">`:
        DB "\015\012 ZDO change state\015\012"

        RSEG XDATA_ROM_C:CONST:REORDER:NOROOT(0)
        DATA8
`?<Constant "\\r\\nNew node joined\\r\\n">`:
        DB "\015\012New node joined\015\012"

        RSEG XDATA_ROM_C:CONST:REORDER:NOROOT(0)
        DATA8
`?<Constant "\\r\\nnwk addr:">`:
        DB "\015\012nwk addr:"

        RSEG XDATA_ROM_C:CONST:REORDER:NOROOT(0)
        DATA8
`?<Constant "\\r\\nIEEE address:">`:
        DB "\015\012IEEE address:"

        RSEG XDATA_ROM_C:CONST:REORDER:NOROOT(0)
        DATA8
`?<Constant "\\r\\nrecv nwk addr req\\r\\n">`:
        DB "\015\012recv nwk addr req\015\012"

        RSEG XDATA_ROM_C:CONST:REORDER:NOROOT(0)
        DATA8
`?<Constant "Rcvd:">`:
        DB "Rcvd:"

        RSEG XDATA_ROM_C:CONST:REORDER:NOROOT(0)
        DATA8
`?<Constant "{\\"node\\":\\"%s\\",\\"temp\\":\\"...">`:
        DB "{\"node\":\"%s\",\"temp\":\"%.2f\",\"humi\":\"%.2f\"}"

        RSEG XDATA_ROM_C:CONST:REORDER:NOROOT(0)
        DATA8
`?<Constant "Hello">`:
        DB "Hello"

        RSEG XDATA_ROM_C:CONST:REORDER:NOROOT(0)
        DATA8
`?<Constant "\\r\\n[Send]TransID:">`:
        DB "\015\012[Send]TransID:"

        RSEG XDATA_ROM_C:CONST:REORDER:NOROOT(0)
        DATA32
__Constant_65:
        DD 101

        END
//  632 
//  633 #if defined( IAR_ARMCM3_LM )
//  634 /*********************************************************************
//  635  * @fn      GenericApp_ProcessRtosMessage
//  636  *
//  637  * @brief   Receive message from RTOS queue, send response back.
//  638  *
//  639  * @param   none
//  640  *
//  641  * @return  none
//  642  */
//  643 static void GenericApp_ProcessRtosMessage( void )
//  644 {
//  645   osalQueue_t inMsg;
//  646 
//  647   if ( osal_queue_receive( OsalQueue, &inMsg, 0 ) == pdPASS )
//  648   {
//  649     uint8 cmndId = inMsg.cmnd;
//  650     uint32 counter = osal_build_uint32( inMsg.cbuf, 4 );
//  651 
//  652     switch ( cmndId )
//  653     {
//  654       case CMD_INCR:
//  655         counter += 1;  /* Increment the incoming counter */
//  656                        /* Intentionally fall through next case */
//  657 
//  658       case CMD_ECHO:
//  659       {
//  660         userQueue_t outMsg;
//  661 
//  662         outMsg.resp = RSP_CODE | cmndId;  /* Response ID */
//  663         osal_buffer_uint32( outMsg.rbuf, counter );    /* Increment counter */
//  664         osal_queue_send( UserQueue1, &outMsg, 0 );  /* Send back to UserTask */
//  665         break;
//  666       }
//  667 
//  668       default:
//  669         break;  /* Ignore unknown command */
//  670     }
//  671   }
//  672 }
//  673 #endif
//  674 
//  675 /*********************************************************************
//  676  */
// 
// 1 368 bytes in segment BANKED_CODE
//    36 bytes in segment BANK_RELAYS
//     4 bytes in segment XDATA_I
//     4 bytes in segment XDATA_ID
//   261 bytes in segment XDATA_ROM_C
//    24 bytes in segment XDATA_Z
// 
// 1 408 bytes of CODE  memory
//   257 bytes of CONST memory (+ 4 bytes shared)
//    28 bytes of XDATA memory
//
//Errors: none
//Warnings: 6
