///////////////////////////////////////////////////////////////////////////////
//
// IAR C/C++ Compiler V9.20.1.2476 for 8051               29/Jul/2016  15:40:35
// Copyright 2004-2015 IAR Systems AB.
// Standalone license - IAR Embedded Workbench for 8051
//
//    Core               =  plain
//    Code model         =  banked
//    Data model         =  large
//    Calling convention =  xdata reentrant
//    Constant location  =  data_rom
//    Dptr setup         =  1,16
//                          
//    Source file        =  
//        C:\Users\8470p\Desktop\Z-Stack Mesh 1.0.0
//        ZED\Components\hal\target\CC2530EB\hal_lcd.c
//    Command line       =  
//        -f "C:\Users\8470p\Desktop\Z-Stack Mesh 1.0.0
//        ZED\Projects\zstack\Samples\GenericApp\CC2530DB\..\..\..\Tools\CC2530DB\f8wEndev.cfg"
//        (-DCPU32MHZ -DROOT=__near_func -DMAC_CFG_TX_DATA_MAX=3
//        -DMAC_CFG_TX_MAX=6 -DMAC_CFG_RX_MAX=3) -f
//        "C:\Users\8470p\Desktop\Z-Stack Mesh 1.0.0
//        ZED\Projects\zstack\Samples\GenericApp\CC2530DB\..\..\..\Tools\CC2530DB\f8wConfig.cfg"
//        (-DZIGBEEPRO -DSECURE=1 -DZG_SECURE_DYNAMIC=0 -DREFLECTOR
//        -DDEFAULT_CHANLIST=0x00000800 -DZDAPP_CONFIG_PAN_ID=0x1235
//        -DNWK_START_DELAY=100 -DEXTENDED_JOINING_RANDOM_MASK=0x007F
//        -DBEACON_REQUEST_DELAY=100 -DBEACON_REQ_DELAY_MASK=0x00FF
//        -DLINK_STATUS_JITTER_MASK=0x007F -DROUTE_EXPIRY_TIME=30
//        -DAPSC_ACK_WAIT_DURATION_POLLED=2000 -DNWK_INDIRECT_MSG_TIMEOUT=7
//        -DMAX_RREQ_ENTRIES=8 -DAPSC_MAX_FRAME_RETRIES=3
//        -DNWK_MAX_DATA_RETRIES=2 -DMAX_POLL_FAILURE_RETRIES=2 -DMAX_BCAST=9
//        -DAPS_MAX_GROUPS=16 -DMAX_RTG_ENTRIES=40 -DNWK_MAX_BINDING_ENTRIES=4
//        -DMAX_BINDING_CLUSTER_IDS=4 "-DDEFAULT_KEY={0x01, 0x03, 0x05, 0x07,
//        0x09, 0x0B, 0x0D, 0x0F, 0x00, 0x02, 0x04, 0x06, 0x08, 0x0A, 0x0C,
//        0x0D}" -DMAC_MAX_FRAME_SIZE=116 -DZDNWKMGR_MIN_TRANSMISSIONS=20
//        "-DCONST=const __code" -DGENERIC=__generic -DRFD_RCVC_ALWAYS_ON=FALSE
//        -DPOLL_RATE=1000 -DQUEUED_POLL_RATE=100 -DRESPONSE_POLL_RATE=100)
//        -DREJOIN_POLL_RATE=440 "C:\Users\8470p\Desktop\Z-Stack Mesh 1.0.0
//        ZED\Components\hal\target\CC2530EB\hal_lcd.c" -D NWK_AUTO_POLL -D
//        ZTOOL_P1 -D MT_TASK -D MT_SYS_FUNC -D MT_ZDO_FUNC -D
//        LCD_SUPPORTED=DEBUG -D xPOWER_SAVING -D MAKE_CRC_SHDW -lC
//        "C:\Users\8470p\Desktop\Z-Stack Mesh 1.0.0
//        ZED\Projects\zstack\Samples\GenericApp\CC2530DB\EndDeviceEB-SBL\List\"
//        -lA "C:\Users\8470p\Desktop\Z-Stack Mesh 1.0.0
//        ZED\Projects\zstack\Samples\GenericApp\CC2530DB\EndDeviceEB-SBL\List\"
//        --diag_suppress Pe001,Pa010 -o "C:\Users\8470p\Desktop\Z-Stack Mesh
//        1.0.0
//        ZED\Projects\zstack\Samples\GenericApp\CC2530DB\EndDeviceEB-SBL\Obj\"
//        -e --no_code_motion --debug --core=plain --dptr=16,1
//        --data_model=large --code_model=banked
//        --calling_convention=xdata_reentrant --place_constants=data_rom
//        --nr_virtual_regs 16 -I "C:\Users\8470p\Desktop\Z-Stack Mesh 1.0.0
//        ZED\Projects\zstack\Samples\GenericApp\CC2530DB\" -I
//        "C:\Users\8470p\Desktop\Z-Stack Mesh 1.0.0
//        ZED\Projects\zstack\Samples\GenericApp\CC2530DB\..\Source\" -I
//        "C:\Users\8470p\Desktop\Z-Stack Mesh 1.0.0
//        ZED\Projects\zstack\Samples\GenericApp\CC2530DB\..\..\..\ZMain\TI2530DB\"
//        -I "C:\Users\8470p\Desktop\Z-Stack Mesh 1.0.0
//        ZED\Projects\zstack\Samples\GenericApp\CC2530DB\..\..\..\..\..\Components\hal\include\"
//        -I "C:\Users\8470p\Desktop\Z-Stack Mesh 1.0.0
//        ZED\Projects\zstack\Samples\GenericApp\CC2530DB\..\..\..\..\..\Components\hal\target\CC2530EB\"
//        -I "C:\Users\8470p\Desktop\Z-Stack Mesh 1.0.0
//        ZED\Projects\zstack\Samples\GenericApp\CC2530DB\..\..\..\..\..\Components\mac\include\"
//        -I "C:\Users\8470p\Desktop\Z-Stack Mesh 1.0.0
//        ZED\Projects\zstack\Samples\GenericApp\CC2530DB\..\..\..\..\..\Components\mac\high_level\"
//        -I "C:\Users\8470p\Desktop\Z-Stack Mesh 1.0.0
//        ZED\Projects\zstack\Samples\GenericApp\CC2530DB\..\..\..\..\..\Components\mac\low_level\srf04\"
//        -I "C:\Users\8470p\Desktop\Z-Stack Mesh 1.0.0
//        ZED\Projects\zstack\Samples\GenericApp\CC2530DB\..\..\..\..\..\Components\mac\low_level\srf04\single_chip\"
//        -I "C:\Users\8470p\Desktop\Z-Stack Mesh 1.0.0
//        ZED\Projects\zstack\Samples\GenericApp\CC2530DB\..\..\..\..\..\Components\mt\"
//        -I "C:\Users\8470p\Desktop\Z-Stack Mesh 1.0.0
//        ZED\Projects\zstack\Samples\GenericApp\CC2530DB\..\..\..\..\..\Components\osal\include\"
//        -I "C:\Users\8470p\Desktop\Z-Stack Mesh 1.0.0
//        ZED\Projects\zstack\Samples\GenericApp\CC2530DB\..\..\..\..\..\Components\services\saddr\"
//        -I "C:\Users\8470p\Desktop\Z-Stack Mesh 1.0.0
//        ZED\Projects\zstack\Samples\GenericApp\CC2530DB\..\..\..\..\..\Components\services\sdata\"
//        -I "C:\Users\8470p\Desktop\Z-Stack Mesh 1.0.0
//        ZED\Projects\zstack\Samples\GenericApp\CC2530DB\..\..\..\..\..\Components\stack\af\"
//        -I "C:\Users\8470p\Desktop\Z-Stack Mesh 1.0.0
//        ZED\Projects\zstack\Samples\GenericApp\CC2530DB\..\..\..\..\..\Components\stack\nwk\"
//        -I "C:\Users\8470p\Desktop\Z-Stack Mesh 1.0.0
//        ZED\Projects\zstack\Samples\GenericApp\CC2530DB\..\..\..\..\..\Components\stack\sapi\"
//        -I "C:\Users\8470p\Desktop\Z-Stack Mesh 1.0.0
//        ZED\Projects\zstack\Samples\GenericApp\CC2530DB\..\..\..\..\..\Components\stack\sec\"
//        -I "C:\Users\8470p\Desktop\Z-Stack Mesh 1.0.0
//        ZED\Projects\zstack\Samples\GenericApp\CC2530DB\..\..\..\..\..\Components\stack\sys\"
//        -I "C:\Users\8470p\Desktop\Z-Stack Mesh 1.0.0
//        ZED\Projects\zstack\Samples\GenericApp\CC2530DB\..\..\..\..\..\Components\stack\zdo\"
//        -I "C:\Users\8470p\Desktop\Z-Stack Mesh 1.0.0
//        ZED\Projects\zstack\Samples\GenericApp\CC2530DB\..\..\..\..\..\Components\zmac\"
//        -I "C:\Users\8470p\Desktop\Z-Stack Mesh 1.0.0
//        ZED\Projects\zstack\Samples\GenericApp\CC2530DB\..\..\..\..\..\Components\zmac\f8w\"
//        -Ohz --require_prototypes
//    List file          =  
//        C:\Users\8470p\Desktop\Z-Stack Mesh 1.0.0
//        ZED\Projects\zstack\Samples\GenericApp\CC2530DB\EndDeviceEB-SBL\List\hal_lcd.s51
//
///////////////////////////////////////////////////////////////////////////////

        NAME hal_lcd

        RTMODEL "__SystemLibrary", "CLib"
        RTMODEL "__calling_convention", "xdata_reentrant"
        RTMODEL "__code_model", "banked"
        RTMODEL "__core", "plain"
        RTMODEL "__data_model", "large"
        RTMODEL "__dptr_size", "16"
        RTMODEL "__extended_stack", "disabled"
        RTMODEL "__location_for_constants", "data"
        RTMODEL "__number_of_dptrs", "1"
        RTMODEL "__rt_version", "1"

        RSEG DOVERLAY:DATA:NOROOT(0)
        RSEG IOVERLAY:IDATA:NOROOT(0)
        RSEG ISTACK:IDATA:NOROOT(0)
        RSEG PSTACK:XDATA:NOROOT(0)
        RSEG XSTACK:XDATA:NOROOT(0)

        EXTERN ?V0
        EXTERN ?V1
        EXTERN ?V2
        EXTERN ?V3
        EXTERN ?V4
        EXTERN ?V5
        EXTERN ?V6
        EXTERN ?V8
        EXTERN ?V9
        EXTERN ?V10
        EXTERN ?ALLOC_XSTACK8
        EXTERN ?BANKED_ENTER_XDATA
        EXTERN ?BANKED_LEAVE_XDATA
        EXTERN ?BDISPATCH
        EXTERN ?BRET
        EXTERN ?DEALLOC_XSTACK8
        EXTERN ?PUSH_XSTACK_I_THREE
        EXTERN ?PUSH_XSTACK_I_TWO
        EXTERN ?XSP
        EXTERN ?XSTACK_DISP0_8
        EXTERN ?XSTACK_DISP101_8

        PUBLIC `??HalLcdDisplayPercentBar::?relay`
        FUNCTION `??HalLcdDisplayPercentBar::?relay`,0203H
        PUBLIC `??HalLcdInit::?relay`
        FUNCTION `??HalLcdInit::?relay`,0203H
        PUBLIC `??HalLcdWriteScreen::?relay`
        FUNCTION `??HalLcdWriteScreen::?relay`,0203H
        PUBLIC `??HalLcdWriteString::?relay`
        FUNCTION `??HalLcdWriteString::?relay`,0203H
        PUBLIC `??HalLcdWriteStringValue::?relay`
        FUNCTION `??HalLcdWriteStringValue::?relay`,0203H
        PUBLIC `??HalLcdWriteStringValueValue::?relay`
        FUNCTION `??HalLcdWriteStringValueValue::?relay`,0203H
        PUBLIC `??HalLcdWriteValue::?relay`
        FUNCTION `??HalLcdWriteValue::?relay`,0203H
        PUBLIC HalLcdDisplayPercentBar
        FUNCTION HalLcdDisplayPercentBar,0203H
        ARGFRAME XSTACK, 0, STACK
        PUBLIC HalLcdInit
        FUNCTION HalLcdInit,0203H
        ARGFRAME XSTACK, 0, STACK
        PUBLIC HalLcdWriteScreen
        FUNCTION HalLcdWriteScreen,0a1203H
        ARGFRAME XSTACK, 0, STACK
        LOCFRAME XSTACK, 10, STACK
        PUBLIC HalLcdWriteString
        FUNCTION HalLcdWriteString,021203H
        ARGFRAME XSTACK, 0, STACK
        LOCFRAME ISTACK, 2, STACK
        PUBLIC HalLcdWriteStringValue
        FUNCTION HalLcdWriteStringValue,0a1203H
        ARGFRAME XSTACK, 1, STACK
        LOCFRAME XSTACK, 43, STACK
        PUBLIC HalLcdWriteStringValueValue
        FUNCTION HalLcdWriteStringValueValue,0a1203H
        ARGFRAME XSTACK, 4, STACK
        LOCFRAME XSTACK, 47, STACK
        PUBLIC HalLcdWriteValue
        FUNCTION HalLcdWriteValue,0a1203H
        ARGFRAME XSTACK, 1, STACK
        LOCFRAME XSTACK, 41, STACK
        
          CFI Names cfiNames0
          CFI StackFrame CFA_SP SP IDATA
          CFI StackFrame CFA_PSP16 PSP16 XDATA
          CFI StackFrame CFA_XSP16 XSP16 XDATA
          CFI StaticOverlayFrame CFA_IOVERLAY IOVERLAY
          CFI StaticOverlayFrame CFA_DOVERLAY DOVERLAY
          CFI Resource `PSW.CY`:1, `B.BR0`:1, `B.BR1`:1, `B.BR2`:1, `B.BR3`:1
          CFI Resource `B.BR4`:1, `B.BR5`:1, `B.BR6`:1, `B.BR7`:1, `VB.BR8`:1
          CFI Resource `VB.BR9`:1, `VB.BR10`:1, `VB.BR11`:1, `VB.BR12`:1
          CFI Resource `VB.BR13`:1, `VB.BR14`:1, `VB.BR15`:1, VB:8, B:8, A:8
          CFI Resource PSW:8, DPL0:8, DPH0:8, R0:8, R1:8, R2:8, R3:8, R4:8, R5:8
          CFI Resource R6:8, R7:8, V0:8, V1:8, V2:8, V3:8, V4:8, V5:8, V6:8, V7:8
          CFI Resource V8:8, V9:8, V10:8, V11:8, V12:8, V13:8, V14:8, V15:8, SP:8
          CFI Resource PSPH:8, PSPL:8, PSP16:16, XSPH:8, XSPL:8, XSP16:16
          CFI VirtualResource ?RET:24
          CFI Resource ?BRET_EXT:8
          CFI VirtualResource ?RET_HIGH:8, ?RET_LOW:8
          CFI ResourceParts PSP16 PSPH, PSPL
          CFI ResourceParts XSP16 XSPH, XSPL
          CFI ResourceParts ?RET ?BRET_EXT, ?RET_HIGH, ?RET_LOW
          CFI EndNames cfiNames0
        
          CFI Common cfiCommon0 Using cfiNames0
          CFI CodeAlign 1
          CFI DataAlign -1
          CFI ReturnAddress ?RET CODE
          CFI CFA_DOVERLAY Used
          CFI CFA_IOVERLAY Used
          CFI CFA_SP SP+-3
          CFI CFA_PSP16 PSP16+0
          CFI CFA_XSP16 XSP16+0
          CFI `PSW.CY` SameValue
          CFI `B.BR0` SameValue
          CFI `B.BR1` SameValue
          CFI `B.BR2` SameValue
          CFI `B.BR3` SameValue
          CFI `B.BR4` SameValue
          CFI `B.BR5` SameValue
          CFI `B.BR6` SameValue
          CFI `B.BR7` SameValue
          CFI `VB.BR8` SameValue
          CFI `VB.BR9` SameValue
          CFI `VB.BR10` SameValue
          CFI `VB.BR11` SameValue
          CFI `VB.BR12` SameValue
          CFI `VB.BR13` SameValue
          CFI `VB.BR14` SameValue
          CFI `VB.BR15` SameValue
          CFI VB SameValue
          CFI B Undefined
          CFI A Undefined
          CFI PSW SameValue
          CFI DPL0 SameValue
          CFI DPH0 SameValue
          CFI R0 Undefined
          CFI R1 Undefined
          CFI R2 Undefined
          CFI R3 Undefined
          CFI R4 Undefined
          CFI R5 Undefined
          CFI R6 SameValue
          CFI R7 SameValue
          CFI V0 SameValue
          CFI V1 SameValue
          CFI V2 SameValue
          CFI V3 SameValue
          CFI V4 SameValue
          CFI V5 SameValue
          CFI V6 SameValue
          CFI V7 SameValue
          CFI V8 SameValue
          CFI V9 SameValue
          CFI V10 SameValue
          CFI V11 SameValue
          CFI V12 SameValue
          CFI V13 SameValue
          CFI V14 SameValue
          CFI V15 SameValue
          CFI PSPH Undefined
          CFI PSPL Undefined
          CFI XSPH Undefined
          CFI XSPL Undefined
          CFI ?RET Concat
          CFI ?BRET_EXT Frame(CFA_SP, 3)
          CFI ?RET_HIGH Frame(CFA_SP, 2)
          CFI ?RET_LOW Frame(CFA_SP, 1)
          CFI EndCommon cfiCommon0
        
        
          CFI Common cfiCommon1 Using cfiNames0
          CFI CodeAlign 1
          CFI DataAlign -1
          CFI ReturnAddress ?RET CODE
          CFI CFA_DOVERLAY Used
          CFI CFA_IOVERLAY Used
          CFI CFA_SP SP+-2
          CFI CFA_PSP16 PSP16+0
          CFI CFA_XSP16 XSP16+0
          CFI `PSW.CY` SameValue
          CFI `B.BR0` SameValue
          CFI `B.BR1` SameValue
          CFI `B.BR2` SameValue
          CFI `B.BR3` SameValue
          CFI `B.BR4` SameValue
          CFI `B.BR5` SameValue
          CFI `B.BR6` SameValue
          CFI `B.BR7` SameValue
          CFI `VB.BR8` SameValue
          CFI `VB.BR9` SameValue
          CFI `VB.BR10` SameValue
          CFI `VB.BR11` SameValue
          CFI `VB.BR12` SameValue
          CFI `VB.BR13` SameValue
          CFI `VB.BR14` SameValue
          CFI `VB.BR15` SameValue
          CFI VB SameValue
          CFI B SameValue
          CFI A SameValue
          CFI PSW SameValue
          CFI DPL0 SameValue
          CFI DPH0 SameValue
          CFI R0 SameValue
          CFI R1 SameValue
          CFI R2 SameValue
          CFI R3 SameValue
          CFI R4 SameValue
          CFI R5 SameValue
          CFI R6 SameValue
          CFI R7 SameValue
          CFI V0 SameValue
          CFI V1 SameValue
          CFI V2 SameValue
          CFI V3 SameValue
          CFI V4 SameValue
          CFI V5 SameValue
          CFI V6 SameValue
          CFI V7 SameValue
          CFI V8 SameValue
          CFI V9 SameValue
          CFI V10 SameValue
          CFI V11 SameValue
          CFI V12 SameValue
          CFI V13 SameValue
          CFI V14 SameValue
          CFI V15 SameValue
          CFI PSPH Undefined
          CFI PSPL Undefined
          CFI XSPH Undefined
          CFI XSPL Undefined
          CFI ?RET Concat
          CFI ?BRET_EXT SameValue
          CFI ?RET_HIGH Frame(CFA_SP, 2)
          CFI ?RET_LOW Frame(CFA_SP, 1)
          CFI EndCommon cfiCommon1
        
_ltoa               SYMBOL "_ltoa"
`??_ltoa::?relay`   SYMBOL "?relay", _ltoa
osal_memcpy         SYMBOL "osal_memcpy"
`??osal_memcpy::?relay` SYMBOL "?relay", osal_memcpy
osal_strlen         SYMBOL "osal_strlen"
`??osal_strlen::?relay` SYMBOL "?relay", osal_strlen
uart_put_string     SYMBOL "uart_put_string"
`??uart_put_string::?relay` SYMBOL "?relay", uart_put_string
HalLcdDisplayPercentBar SYMBOL "HalLcdDisplayPercentBar"
`??HalLcdDisplayPercentBar::?relay` SYMBOL "?relay", HalLcdDisplayPercentBar
HalLcdInit          SYMBOL "HalLcdInit"
`??HalLcdInit::?relay` SYMBOL "?relay", HalLcdInit
HalLcdWriteScreen   SYMBOL "HalLcdWriteScreen"
`??HalLcdWriteScreen::?relay` SYMBOL "?relay", HalLcdWriteScreen
HalLcdWriteString   SYMBOL "HalLcdWriteString"
`??HalLcdWriteString::?relay` SYMBOL "?relay", HalLcdWriteString
HalLcdWriteStringValue SYMBOL "HalLcdWriteStringValue"
`??HalLcdWriteStringValue::?relay` SYMBOL "?relay", HalLcdWriteStringValue
HalLcdWriteStringValueValue SYMBOL "HalLcdWriteStringValueValue"
`??HalLcdWriteStringValueValue::?relay` SYMBOL "?relay", HalLcdWriteStringValueValue
HalLcdWriteValue    SYMBOL "HalLcdWriteValue"
`??HalLcdWriteValue::?relay` SYMBOL "?relay", HalLcdWriteValue

        EXTERN `??_ltoa::?relay`
        FUNCTION `??_ltoa::?relay`,00H
        EXTERN `??osal_memcpy::?relay`
        FUNCTION `??osal_memcpy::?relay`,00H
        EXTERN `??osal_strlen::?relay`
        FUNCTION `??osal_strlen::?relay`,00H
        EXTERN `??uart_put_string::?relay`
        FUNCTION `??uart_put_string::?relay`,00H
        EXTERN _ltoa
        FUNCTION _ltoa,0202H
        ARGFRAME ISTACK, 0, STACK
        ARGFRAME PSTACK, 0, STACK
        ARGFRAME XSTACK, 46, STACK
        ARGFRAME IOVERLAY, 0, STATIC
        ARGFRAME DOVERLAY, 0, STATIC
        EXTERN osal_memcpy
        FUNCTION osal_memcpy,0202H
        ARGFRAME ISTACK, 0, STACK
        ARGFRAME PSTACK, 0, STACK
        ARGFRAME XSTACK, 47, STACK
        ARGFRAME IOVERLAY, 0, STATIC
        ARGFRAME DOVERLAY, 0, STATIC
        EXTERN osal_strlen
        FUNCTION osal_strlen,0202H
        ARGFRAME ISTACK, 0, STACK
        ARGFRAME PSTACK, 0, STACK
        ARGFRAME XSTACK, 44, STACK
        ARGFRAME IOVERLAY, 0, STATIC
        ARGFRAME DOVERLAY, 0, STATIC
        EXTERN uart_put_string
        FUNCTION uart_put_string,0202H
        ARGFRAME ISTACK, 2, STACK
        ARGFRAME PSTACK, 0, STACK
        ARGFRAME XSTACK, 44, STACK
        ARGFRAME IOVERLAY, 0, STATIC
        ARGFRAME DOVERLAY, 0, STATIC

// C:\Users\8470p\Desktop\Z-Stack Mesh 1.0.0 ZED\Components\hal\target\CC2530EB\hal_lcd.c
//    1 /**************************************************************************************************
//    2   Filename:       hal_lcd.c
//    3   Revised:        $Date: 2012-09-30 16:36:36 -0700 (Sun, 30 Sep 2012) $
//    4   Revision:       $Revision: 31658 $
//    5 
//    6   Description:    This file contains the interface to the HAL LCD Service.
//    7 
//    8 
//    9   Copyright 2007-2012 Texas Instruments Incorporated. All rights reserved.
//   10 
//   11   IMPORTANT: Your use of this Software is limited to those specific rights
//   12   granted under the terms of a software license agreement between the user
//   13   who downloaded the software, his/her employer (which must be your employer)
//   14   and Texas Instruments Incorporated (the "License"). You may not use this
//   15   Software unless you agree to abide by the terms of the License. The License
//   16   limits your use, and you acknowledge, that the Software may not be modified,
//   17   copied or distributed unless embedded on a Texas Instruments microcontroller
//   18   or used solely and exclusively in conjunction with a Texas Instruments radio
//   19   frequency transceiver, which is integrated into your product. Other than for
//   20   the foregoing purpose, you may not use, reproduce, copy, prepare derivative
//   21   works of, modify, distribute, perform, display or sell this Software and/or
//   22   its documentation for any purpose.
//   23 
//   24   YOU FURTHER ACKNOWLEDGE AND AGREE THAT THE SOFTWARE AND DOCUMENTATION ARE
//   25   PROVIDED “AS IS” WITHOUT WARRANTY OF ANY KIND, EITHER EXPRESS OR IMPLIED,
//   26   INCLUDING WITHOUT LIMITATION, ANY WARRANTY OF MERCHANTABILITY, TITLE,
//   27   NON-INFRINGEMENT AND FITNESS FOR A PARTICULAR PURPOSE. IN NO EVENT SHALL
//   28   TEXAS INSTRUMENTS OR ITS LICENSORS BE LIABLE OR OBLIGATED UNDER CONTRACT,
//   29   NEGLIGENCE, STRICT LIABILITY, CONTRIBUTION, BREACH OF WARRANTY, OR OTHER
//   30   LEGAL EQUITABLE THEORY ANY DIRECT OR INDIRECT DAMAGES OR EXPENSES
//   31   INCLUDING BUT NOT LIMITED TO ANY INCIDENTAL, SPECIAL, INDIRECT, PUNITIVE
//   32   OR CONSEQUENTIAL DAMAGES, LOST PROFITS OR LOST DATA, COST OF PROCUREMENT
//   33   OF SUBSTITUTE GOODS, TECHNOLOGY, SERVICES, OR ANY CLAIMS BY THIRD PARTIES
//   34   (INCLUDING BUT NOT LIMITED TO ANY DEFENSE THEREOF), OR OTHER SIMILAR COSTS.
//   35 
//   36   Should you have any questions regarding your right to use this Software,
//   37   contact Texas Instruments Incorporated at www.TI.com.
//   38 **************************************************************************************************/
//   39 
//   40 /**************************************************************************************************
//   41  *                                           INCLUDES
//   42  **************************************************************************************************/
//   43 #include "hal_types.h"
//   44 #include "hal_lcd.h"
//   45 #include "OSAL.h"
//   46 #include "OnBoard.h"
//   47 #include "hal_assert.h"
//   48 
//   49 #if defined (ZTOOL_P1) || defined (ZTOOL_P2)
//   50   #include "DebugTrace.h"
//   51 #endif
//   52 
//   53 #include "app_config.h"
//   54 #include "debug.h"
//   55 /**************************************************************************************************
//   56  *                                          CONSTANTS
//   57  **************************************************************************************************/
//   58 /*
//   59   LCD pins
//   60 
//   61   //control
//   62   P0.0 - LCD_MODE
//   63   P1.1 - LCD_FLASH_RESET
//   64   P1.2 - LCD_CS
//   65 
//   66   //spi
//   67   P1.5 - CLK
//   68   P1.6 - MOSI
//   69   P1.7 - MISO
//   70 */
//   71 
//   72 /* LCD Control lines */
//   73 #define HAL_LCD_MODE_PORT 0
//   74 #define HAL_LCD_MODE_PIN  0
//   75 
//   76 #define HAL_LCD_RESET_PORT 1
//   77 #define HAL_LCD_RESET_PIN  1
//   78 
//   79 #define HAL_LCD_CS_PORT 1
//   80 #define HAL_LCD_CS_PIN  2
//   81 
//   82 /* LCD SPI lines */
//   83 #define HAL_LCD_CLK_PORT 1
//   84 #define HAL_LCD_CLK_PIN  5
//   85 
//   86 #define HAL_LCD_MOSI_PORT 1
//   87 #define HAL_LCD_MOSI_PIN  6
//   88 
//   89 #define HAL_LCD_MISO_PORT 1
//   90 #define HAL_LCD_MISO_PIN  7
//   91 
//   92 /* SPI settings */
//   93 #define HAL_SPI_CLOCK_POL_LO       0x00
//   94 #define HAL_SPI_CLOCK_PHA_0        0x00
//   95 #define HAL_SPI_TRANSFER_MSB_FIRST 0x20
//   96 
//   97 /* LCD lines */
//   98 #define LCD_MAX_LINE_COUNT              3
//   99 
//  100 /* Defines for HW LCD */
//  101 
//  102 /* Set power save mode */
//  103 #define OSC_OFF                         0x00
//  104 #define OSC_ON                          0x01
//  105 #define POWER_SAVE_OFF                  0x00
//  106 #define POWER_SAVE_ON                   0x02
//  107 #define SET_POWER_SAVE_MODE(options)    HalLcd_HW_Control(0x0C | (options))
//  108 
//  109 /* Function Set */
//  110 #define CGROM                           0x00
//  111 #define CGRAM                           0x01
//  112 #define COM_FORWARD                     0x00
//  113 #define COM_BACKWARD                    0x02
//  114 #define TWO_LINE                        0x00
//  115 #define THREE_LINE                      0x04
//  116 #define FUNCTION_SET(options)           HalLcd_HW_Control(0x10 | (options))
//  117 
//  118 /* Set Display Start Line */
//  119 #define LINE1                           0x00
//  120 #define LINE2                           0x01
//  121 #define LINE3                           0x02
//  122 #define LINE4                           0x03
//  123 #define SET_DISPLAY_START_LINE(line)    HalLcd_HW_Control(0x18 | (line))
//  124 
//  125 /* Bias control */
//  126 #define BIAS_1_5                        0x00
//  127 #define BIAS_1_4                        0x01
//  128 #define SET_BIAS_CTRL(bias)             HalLcd_HW_Control(0x1C | (bias))
//  129 
//  130 /* Power control */
//  131 #define VOLTAGE_DIVIDER_OFF             0x00
//  132 #define VOLTAGE_DIVIDER_ON              0x01
//  133 #define CONVERTER_AND_REG_OFF           0x00
//  134 #define CONVERTER_AND_REG_ON            0x04
//  135 #define SET_POWER_CTRL(options)         HalLcd_HW_Control(0x20 | (options))
//  136 
//  137 // Set display control
//  138 #define DISPLAY_CTRL_ON                 0x01
//  139 #define DISPLAY_CTRL_OFF                0x00
//  140 #define DISPLAY_CTRL_BLINK_ON           0x02
//  141 #define DISPLAY_CTRL_BLINK_OFF          0x00
//  142 #define DISPLAY_CTRL_CURSOR_ON          0x04
//  143 #define DISPLAY_CTRL_CURSOR_OFF         0x00
//  144 #define SET_DISPLAY_CTRL(options)       HalLcd_HW_Control(0x28 | (options))
//  145 
//  146 /* Set DD/ CGRAM address */
//  147 #define SET_DDRAM_ADDR(charIndex)       HalLcd_HW_Control(0x80 | (charIndex))
//  148 #define SET_GCRAM_CHAR(specIndex)       HalLcd_HW_Control(0xC0 | (specIndex))
//  149 
//  150 /* Set ICONRAM address */
//  151 #define CONTRAST_CTRL_REGISTER          0x10
//  152 #define SET_ICONRAM_ADDR(addr)          HalLcd_HW_Control(0x40 | (addr))
//  153 
//  154 /* Set double height */
//  155 #define LINE_1_AND_2                    0x01
//  156 #define LINE_2_AND_3                    0x02
//  157 #define NORMAL_DISPLAY                  0x00
//  158 #define SET_DOUBLE_HEIGHT(options)      HalLcd_HW_Control(0x08 | (options))
//  159 
//  160 /**************************************************************************************************
//  161  *                                           MACROS
//  162  **************************************************************************************************/
//  163 
//  164 #define HAL_IO_SET(port, pin, val)        HAL_IO_SET_PREP(port, pin, val)
//  165 #define HAL_IO_SET_PREP(port, pin, val)   st( P##port##_##pin## = val; )
//  166 
//  167 #define HAL_CONFIG_IO_OUTPUT(port, pin, val)      HAL_CONFIG_IO_OUTPUT_PREP(port, pin, val)
//  168 #define HAL_CONFIG_IO_OUTPUT_PREP(port, pin, val) st( P##port##SEL &= ~BV(pin); \ 
//  169                                                       P##port##_##pin## = val; \ 
//  170                                                       P##port##DIR |= BV(pin); )
//  171 
//  172 #define HAL_CONFIG_IO_PERIPHERAL(port, pin)      HAL_CONFIG_IO_PERIPHERAL_PREP(port, pin)
//  173 #define HAL_CONFIG_IO_PERIPHERAL_PREP(port, pin) st( P##port##SEL |= BV(pin); )
//  174 
//  175 
//  176 
//  177 /* SPI interface control */
//  178 #define LCD_SPI_BEGIN()     HAL_IO_SET(HAL_LCD_CS_PORT,  HAL_LCD_CS_PIN,  0); /* chip select */
//  179 #define LCD_SPI_END()                                                         \ 
//  180 {                                                                             \ 
//  181   asm("NOP");                                                                 \ 
//  182   asm("NOP");                                                                 \ 
//  183   asm("NOP");                                                                 \ 
//  184   asm("NOP");                                                                 \ 
//  185   HAL_IO_SET(HAL_LCD_CS_PORT,  HAL_LCD_CS_PIN,  1); /* chip select */         \ 
//  186 }
//  187 /* clear the received and transmit byte status, write tx data to buffer, wait till transmit done */
//  188 #define LCD_SPI_TX(x)                   { U1CSR &= ~(BV(2) | BV(1)); U1DBUF = x; while( !(U1CSR & BV(1)) ); }
//  189 #define LCD_SPI_WAIT_RXRDY()            { while(!(U1CSR & BV(1))); }
//  190 
//  191 
//  192 /* Control macros */
//  193 #define LCD_DO_WRITE()        HAL_IO_SET(HAL_LCD_MODE_PORT,  HAL_LCD_MODE_PIN,  1);
//  194 #define LCD_DO_CONTROL()      HAL_IO_SET(HAL_LCD_MODE_PORT,  HAL_LCD_MODE_PIN,  0);
//  195 
//  196 #define LCD_ACTIVATE_RESET()  HAL_IO_SET(HAL_LCD_RESET_PORT, HAL_LCD_RESET_PIN, 0);
//  197 #define LCD_RELEASE_RESET()   HAL_IO_SET(HAL_LCD_RESET_PORT, HAL_LCD_RESET_PIN, 1);
//  198 
//  199 #if (HAL_LCD == TRUE)
//  200 /**************************************************************************************************
//  201  *                                       LOCAL VARIABLES
//  202  **************************************************************************************************/
//  203 
//  204 static uint8 *Lcd_Line1;
//  205 
//  206 /**************************************************************************************************
//  207  *                                       FUNCTIONS - API
//  208  **************************************************************************************************/
//  209 
//  210 void HalLcd_HW_Init(void);
//  211 void HalLcd_HW_WaitUs(uint16 i);
//  212 void HalLcd_HW_Clear(void);
//  213 void HalLcd_HW_ClearAllSpecChars(void);
//  214 void HalLcd_HW_Control(uint8 cmd);
//  215 void HalLcd_HW_Write(uint8 data);
//  216 void HalLcd_HW_SetContrast(uint8 value);
//  217 void HalLcd_HW_WriteChar(uint8 line, uint8 col, char text);
//  218 void HalLcd_HW_WriteLine(uint8 line, const char *pText);
//  219 #endif //LCD
//  220 
//  221 /**************************************************************************************************
//  222  * @fn      HalLcdInit
//  223  *
//  224  * @brief   Initilize LCD Service
//  225  *
//  226  * @param   init - pointer to void that contains the initialized value
//  227  *
//  228  * @return  None
//  229  **************************************************************************************************/

        RSEG BANKED_CODE:CODE:NOROOT(0)
//  230 void HalLcdInit(void)
HalLcdInit:
          CFI Block cfiBlock0 Using cfiCommon0
          CFI Function HalLcdInit
        CODE
//  231 {
        ; Saved register size: 0
        ; Auto size: 0
//  232 #if (HAL_LCD == TRUE)
//  233   Lcd_Line1 = NULL;
//  234   HalLcd_HW_Init();
//  235 #endif
//  236 }
        LJMP    ?BRET
          CFI EndBlock cfiBlock0
//  237 
//  238 /*************************************************************************************************
//  239  *                    LCD EMULATION FUNCTIONS
//  240  *
//  241  * Some evaluation boards are equipped with Liquid Crystal Displays
//  242  * (LCD) which may be used to display diagnostic information. These
//  243  * functions provide LCD emulation, sending the diagnostic strings
//  244  * to Z-Tool via the RS232 serial port. These functions are enabled
//  245  * when the "LCD_SUPPORTED" compiler flag is placed in the makefile.
//  246  *
//  247  * Most applications update both lines (1 and 2) of the LCD whenever
//  248  * text is posted to the device. This emulator assumes that line 1 is
//  249  * updated first (saved locally) and the formatting and send operation
//  250  * is triggered by receipt of line 2. Nothing will be transmitted if
//  251  * only line 1 is updated.
//  252  *
//  253  *************************************************************************************************/
//  254 
//  255 
//  256 /**************************************************************************************************
//  257  * @fn      HalLcdWriteString
//  258  *
//  259  * @brief   Write a string to the LCD
//  260  *
//  261  * @param   str    - pointer to the string that will be displayed
//  262  *          option - display options
//  263  *
//  264  * @return  None
//  265  **************************************************************************************************/

        RSEG BANKED_CODE:CODE:NOROOT(0)
//  266 void HalLcdWriteString ( char *str, uint8 option)
HalLcdWriteString:
          CFI Block cfiBlock1 Using cfiCommon0
          CFI Function HalLcdWriteString
        CODE
//  267 {
        FUNCALL HalLcdWriteString, uart_put_string
        LOCFRAME ISTACK, 2, STACK
        LOCFRAME PSTACK, 0, STACK
        LOCFRAME XSTACK, 0, STACK
        LOCFRAME IOVERLAY, 0, STATIC
        LOCFRAME DOVERLAY, 0, STATIC
        ARGFRAME ISTACK, 2, STACK
        ARGFRAME PSTACK, 0, STACK
        ARGFRAME XSTACK, 0, STACK
        ARGFRAME IOVERLAY, 0, STATIC
        ARGFRAME DOVERLAY, 0, STATIC
        FUNCALL HalLcdWriteString, uart_put_string
        LOCFRAME ISTACK, 2, STACK
        LOCFRAME PSTACK, 0, STACK
        LOCFRAME XSTACK, 0, STACK
        LOCFRAME IOVERLAY, 0, STATIC
        LOCFRAME DOVERLAY, 0, STATIC
        ARGFRAME ISTACK, 2, STACK
        ARGFRAME PSTACK, 0, STACK
        ARGFRAME XSTACK, 0, STACK
        ARGFRAME IOVERLAY, 0, STATIC
        ARGFRAME DOVERLAY, 0, STATIC
        PUSH    DPL
          CFI DPL0 Frame(CFA_SP, 4)
          CFI CFA_SP SP+-4
        PUSH    DPH
          CFI DPH0 Frame(CFA_SP, 5)
          CFI CFA_SP SP+-5
        ; Saved register size: 2
        ; Auto size: 0
//  268 #if (HAL_LCD == TRUE)
//  269 
//  270   uint8 strLen = 0;
//  271   uint8 totalLen = 0;
//  272   uint8 *buf;
//  273   uint8 tmpLen;
//  274 
//  275   if ( Lcd_Line1 == NULL )
//  276   {
//  277     Lcd_Line1 = osal_mem_alloc( HAL_LCD_MAX_CHARS+1 );
//  278     HalLcdWriteString( "TexasInstruments", 1 );
//  279   }
//  280 
//  281   strLen = (uint8)osal_strlen( (char*)str );
//  282 
//  283   /* Check boundries */
//  284   if ( strLen > HAL_LCD_MAX_CHARS )
//  285     strLen = HAL_LCD_MAX_CHARS;
//  286 
//  287   if ( option == HAL_LCD_LINE_1 )
//  288   {
//  289     /* Line 1 gets saved for later */
//  290     osal_memcpy( Lcd_Line1, str, strLen );
//  291     Lcd_Line1[strLen] = '\0';
//  292   }
//  293   else
//  294   {
//  295     /* Line 2 triggers action */
//  296     tmpLen = (uint8)osal_strlen( (char*)Lcd_Line1 );
//  297     totalLen =  tmpLen + 1 + strLen + 1;
//  298     buf = osal_mem_alloc( totalLen );
//  299     if ( buf != NULL )
//  300     {
//  301       /* Concatenate strings */
//  302       osal_memcpy( buf, Lcd_Line1, tmpLen );
//  303       buf[tmpLen++] = ' ';
//  304       osal_memcpy( &buf[tmpLen], str, strLen );
//  305       buf[tmpLen+strLen] = '\0';
//  306 
//  307       /* Send it out */
//  308 #if defined (ZTOOL_P1) || defined (ZTOOL_P2)
//  309 
//  310 #if defined(SERIAL_DEBUG_SUPPORTED)
//  311       debug_str( (uint8*)buf );
//  312 #endif //LCD_SUPPORTED
//  313 
//  314 #endif //ZTOOL_P1
//  315 
//  316       /* Free mem */
//  317       osal_mem_free( buf );
//  318     }
//  319   }
//  320 
//  321   /* Display the string */
//  322   HalLcd_HW_WriteLine (option, str);
//  323 
//  324 #endif //HAL_LCD
//  325 #ifdef DEBUG_UART
//  326   DBG_PRINTF(str);
        ; Setup parameters for call to function uart_put_string
        LCALL   `??uart_put_string::?relay`; Banked call to: uart_put_string
//  327   DBG_PRINTF("\r\n");
        ; Setup parameters for call to function uart_put_string
        MOV     R2,#`?<Constant "\\r\\n">` & 0xff
        MOV     R3,#(`?<Constant "\\r\\n">` >> 8) & 0xff
        LCALL   `??uart_put_string::?relay`; Banked call to: uart_put_string
//  328 #endif
//  329 }
        POP     DPH
          CFI DPH0 SameValue
          CFI CFA_SP SP+-4
        POP     DPL
          CFI DPL0 SameValue
          CFI CFA_SP SP+-3
        LJMP    ?BRET
          CFI EndBlock cfiBlock1
//  330 
//  331 /**************************************************************************************************
//  332  * @fn      HalLcdWriteValue
//  333  *
//  334  * @brief   Write a value to the LCD
//  335  *
//  336  * @param   value  - value that will be displayed
//  337  *          radix  - 8, 10, 16
//  338  *          option - display options
//  339  *
//  340  * @return  None
//  341  **************************************************************************************************/

        RSEG BANKED_CODE:CODE:NOROOT(0)
//  342 void HalLcdWriteValue ( uint32 value, const uint8 radix, uint8 option)
HalLcdWriteValue:
          CFI Block cfiBlock2 Using cfiCommon0
          CFI Function HalLcdWriteValue
        CODE
//  343 {
        FUNCALL HalLcdWriteValue, _ltoa
        LOCFRAME ISTACK, 0, STACK
        LOCFRAME PSTACK, 0, STACK
        LOCFRAME XSTACK, 41, STACK
        LOCFRAME IOVERLAY, 0, STATIC
        LOCFRAME DOVERLAY, 0, STATIC
        ARGFRAME ISTACK, 0, STACK
        ARGFRAME PSTACK, 0, STACK
        ARGFRAME XSTACK, 41, STACK
        ARGFRAME IOVERLAY, 0, STATIC
        ARGFRAME DOVERLAY, 0, STATIC
        FUNCALL HalLcdWriteValue, uart_put_string
        LOCFRAME ISTACK, 0, STACK
        LOCFRAME PSTACK, 0, STACK
        LOCFRAME XSTACK, 39, STACK
        LOCFRAME IOVERLAY, 0, STATIC
        LOCFRAME DOVERLAY, 0, STATIC
        ARGFRAME ISTACK, 0, STACK
        ARGFRAME PSTACK, 0, STACK
        ARGFRAME XSTACK, 39, STACK
        ARGFRAME IOVERLAY, 0, STATIC
        ARGFRAME DOVERLAY, 0, STATIC
        FUNCALL HalLcdWriteValue, uart_put_string
        LOCFRAME ISTACK, 0, STACK
        LOCFRAME PSTACK, 0, STACK
        LOCFRAME XSTACK, 39, STACK
        LOCFRAME IOVERLAY, 0, STATIC
        LOCFRAME DOVERLAY, 0, STATIC
        ARGFRAME ISTACK, 0, STACK
        ARGFRAME PSTACK, 0, STACK
        ARGFRAME XSTACK, 39, STACK
        ARGFRAME IOVERLAY, 0, STATIC
        ARGFRAME DOVERLAY, 0, STATIC
        REQUIRE ?V0
        REQUIRE ?V1
        REQUIRE ?V2
        REQUIRE ?V3
        REQUIRE ?V4
        REQUIRE ?V5
        MOV     A,#-0xe
        LCALL   ?BANKED_ENTER_XDATA
          CFI DPH0 load(1, XDATA, add(CFA_XSP16, literal(-1)))
          CFI DPL0 load(1, XDATA, add(CFA_XSP16, literal(-2)))
          CFI ?BRET_EXT load(1, XDATA, add(CFA_XSP16, literal(-3)))
          CFI ?RET_HIGH load(1, XDATA, add(CFA_XSP16, literal(-4)))
          CFI ?RET_LOW load(1, XDATA, add(CFA_XSP16, literal(-5)))
          CFI R7 load(1, XDATA, add(CFA_XSP16, literal(-6)))
          CFI V5 load(1, XDATA, add(CFA_XSP16, literal(-7)))
          CFI V4 load(1, XDATA, add(CFA_XSP16, literal(-8)))
          CFI V3 load(1, XDATA, add(CFA_XSP16, literal(-9)))
          CFI V2 load(1, XDATA, add(CFA_XSP16, literal(-10)))
          CFI V1 load(1, XDATA, add(CFA_XSP16, literal(-11)))
          CFI V0 load(1, XDATA, add(CFA_XSP16, literal(-12)))
          CFI VB load(1, XDATA, add(CFA_XSP16, literal(-13)))
          CFI R6 load(1, XDATA, add(CFA_XSP16, literal(-14)))
          CFI CFA_SP SP+0
          CFI CFA_XSP16 add(XSP16, 14)
        ; Saved register size: 14
        ; Auto size: 25
        MOV     A,#-0x19
        LCALL   ?ALLOC_XSTACK8
          CFI CFA_XSP16 add(XSP16, 39)
        MOV     A,R1
        MOV     R6,A
//  344 #if (HAL_LCD == TRUE)
//  345   uint8 buf[HAL_LCD_MAX_BUFF];
//  346 
//  347   _ltoa( value, &buf[0], radix );
//  348   HalLcdWriteString( (char*)buf, option );
//  349 #endif
//  350 #ifdef DEBUG_UART
//  351    uint8 buf[HAL_LCD_MAX_BUFF];
//  352   _ltoa( value, &buf[0], radix );
        ; Setup parameters for call to function _ltoa
        MOV     R0,?XSP + 0
        MOV     R1,?XSP + 1
        MOV     ?V4,R0
        MOV     ?V5,R1
        MOV     R0,#?V4
        LCALL   ?PUSH_XSTACK_I_TWO
          CFI CFA_XSP16 add(XSP16, 41)
        MOV     A,R6
        MOV     R1,A
        LCALL   `??_ltoa::?relay`    ; Banked call to: _ltoa
        MOV     A,#0x2
        LCALL   ?DEALLOC_XSTACK8
          CFI CFA_XSP16 add(XSP16, 39)
//  353   DBG_PRINTF(buf);  
        ; Setup parameters for call to function uart_put_string
        MOV     R2,?XSP + 0
        MOV     R3,?XSP + 1
        LCALL   `??uart_put_string::?relay`; Banked call to: uart_put_string
//  354   DBG_PRINTF("\r\n");
        ; Setup parameters for call to function uart_put_string
        MOV     R2,#`?<Constant "\\r\\n">` & 0xff
        MOV     R3,#(`?<Constant "\\r\\n">` >> 8) & 0xff
        LCALL   `??uart_put_string::?relay`; Banked call to: uart_put_string
//  355 
//  356 #endif
//  357 }
        MOV     A,#0x19
        LCALL   ?DEALLOC_XSTACK8
          CFI CFA_XSP16 add(XSP16, 14)
        MOV     R7,#0x6
        LJMP    ?BANKED_LEAVE_XDATA
          CFI R6 SameValue
          CFI VB SameValue
          CFI V0 SameValue
          CFI V1 SameValue
          CFI V2 SameValue
          CFI V3 SameValue
          CFI V4 SameValue
          CFI V5 SameValue
          CFI R7 SameValue
          CFI ?RET_LOW Frame(CFA_SP, 1)
          CFI ?RET_HIGH Frame(CFA_SP, 2)
          CFI ?BRET_EXT Frame(CFA_SP, 3)
          CFI DPL0 SameValue
          CFI DPH0 SameValue
          CFI CFA_SP SP+-3
          CFI CFA_XSP16 XSP16+0
          CFI EndBlock cfiBlock2
//  358 
//  359 /**************************************************************************************************
//  360  * @fn      HalLcdWriteScreen
//  361  *
//  362  * @brief   Write a value to the LCD
//  363  *
//  364  * @param   line1  - string that will be displayed on line 1
//  365  *          line2  - string that will be displayed on line 2
//  366  *
//  367  * @return  None
//  368  **************************************************************************************************/

        RSEG BANKED_CODE:CODE:NOROOT(0)
//  369 void HalLcdWriteScreen( char *line1, char *line2 )
HalLcdWriteScreen:
          CFI Block cfiBlock3 Using cfiCommon0
          CFI Function HalLcdWriteScreen
        CODE
//  370 {
        FUNCALL HalLcdWriteScreen, uart_put_string
        LOCFRAME ISTACK, 0, STACK
        LOCFRAME PSTACK, 0, STACK
        LOCFRAME XSTACK, 10, STACK
        LOCFRAME IOVERLAY, 0, STATIC
        LOCFRAME DOVERLAY, 0, STATIC
        ARGFRAME ISTACK, 0, STACK
        ARGFRAME PSTACK, 0, STACK
        ARGFRAME XSTACK, 10, STACK
        ARGFRAME IOVERLAY, 0, STATIC
        ARGFRAME DOVERLAY, 0, STATIC
        FUNCALL HalLcdWriteScreen, uart_put_string
        LOCFRAME ISTACK, 0, STACK
        LOCFRAME PSTACK, 0, STACK
        LOCFRAME XSTACK, 10, STACK
        LOCFRAME IOVERLAY, 0, STATIC
        LOCFRAME DOVERLAY, 0, STATIC
        ARGFRAME ISTACK, 0, STACK
        ARGFRAME PSTACK, 0, STACK
        ARGFRAME XSTACK, 10, STACK
        ARGFRAME IOVERLAY, 0, STATIC
        ARGFRAME DOVERLAY, 0, STATIC
        FUNCALL HalLcdWriteScreen, uart_put_string
        LOCFRAME ISTACK, 0, STACK
        LOCFRAME PSTACK, 0, STACK
        LOCFRAME XSTACK, 10, STACK
        LOCFRAME IOVERLAY, 0, STATIC
        LOCFRAME DOVERLAY, 0, STATIC
        ARGFRAME ISTACK, 0, STACK
        ARGFRAME PSTACK, 0, STACK
        ARGFRAME XSTACK, 10, STACK
        ARGFRAME IOVERLAY, 0, STATIC
        ARGFRAME DOVERLAY, 0, STATIC
        FUNCALL HalLcdWriteScreen, uart_put_string
        LOCFRAME ISTACK, 0, STACK
        LOCFRAME PSTACK, 0, STACK
        LOCFRAME XSTACK, 10, STACK
        LOCFRAME IOVERLAY, 0, STATIC
        LOCFRAME DOVERLAY, 0, STATIC
        ARGFRAME ISTACK, 0, STACK
        ARGFRAME PSTACK, 0, STACK
        ARGFRAME XSTACK, 10, STACK
        ARGFRAME IOVERLAY, 0, STATIC
        ARGFRAME DOVERLAY, 0, STATIC
        REQUIRE ?V0
        REQUIRE ?V1
        MOV     A,#-0xa
        LCALL   ?BANKED_ENTER_XDATA
          CFI DPH0 load(1, XDATA, add(CFA_XSP16, literal(-1)))
          CFI DPL0 load(1, XDATA, add(CFA_XSP16, literal(-2)))
          CFI ?BRET_EXT load(1, XDATA, add(CFA_XSP16, literal(-3)))
          CFI ?RET_HIGH load(1, XDATA, add(CFA_XSP16, literal(-4)))
          CFI ?RET_LOW load(1, XDATA, add(CFA_XSP16, literal(-5)))
          CFI R7 load(1, XDATA, add(CFA_XSP16, literal(-6)))
          CFI V1 load(1, XDATA, add(CFA_XSP16, literal(-7)))
          CFI V0 load(1, XDATA, add(CFA_XSP16, literal(-8)))
          CFI VB load(1, XDATA, add(CFA_XSP16, literal(-9)))
          CFI R6 load(1, XDATA, add(CFA_XSP16, literal(-10)))
          CFI CFA_SP SP+0
          CFI CFA_XSP16 add(XSP16, 10)
        ; Saved register size: 10
        ; Auto size: 0
        MOV     ?V0,R4
        MOV     ?V1,R5
//  371 #if (HAL_LCD == TRUE)
//  372   HalLcdWriteString( line1, 1 );
//  373   HalLcdWriteString( line2, 2 );
//  374 #endif
//  375   #ifdef DEBUG_UART
//  376 
//  377   DBG_PRINTF(line1);  
        ; Setup parameters for call to function uart_put_string
        LCALL   `??uart_put_string::?relay`; Banked call to: uart_put_string
//  378   DBG_PRINTF("\r\n");
        ; Setup parameters for call to function uart_put_string
        MOV     R2,#`?<Constant "\\r\\n">` & 0xff
        MOV     R3,#(`?<Constant "\\r\\n">` >> 8) & 0xff
        LCALL   `??uart_put_string::?relay`; Banked call to: uart_put_string
//  379   DBG_PRINTF(line2);  
        ; Setup parameters for call to function uart_put_string
        MOV     R2,?V0
        MOV     R3,?V1
        LCALL   `??uart_put_string::?relay`; Banked call to: uart_put_string
//  380   DBG_PRINTF("\r\n");
        ; Setup parameters for call to function uart_put_string
        MOV     R2,#`?<Constant "\\r\\n">` & 0xff
        MOV     R3,#(`?<Constant "\\r\\n">` >> 8) & 0xff
        LCALL   `??uart_put_string::?relay`; Banked call to: uart_put_string
//  381 #endif
//  382   
//  383 }
        MOV     R7,#0x2
        LJMP    ?BANKED_LEAVE_XDATA
          CFI R6 SameValue
          CFI VB SameValue
          CFI V0 SameValue
          CFI V1 SameValue
          CFI R7 SameValue
          CFI ?RET_LOW Frame(CFA_SP, 1)
          CFI ?RET_HIGH Frame(CFA_SP, 2)
          CFI ?BRET_EXT Frame(CFA_SP, 3)
          CFI DPL0 SameValue
          CFI DPH0 SameValue
          CFI CFA_SP SP+-3
          CFI CFA_XSP16 XSP16+0
          CFI EndBlock cfiBlock3
//  384 
//  385 /**************************************************************************************************
//  386  * @fn      HalLcdWriteStringValue
//  387  *
//  388  * @brief   Write a string followed by a value to the LCD
//  389  *
//  390  * @param   title  - Title that will be displayed before the value
//  391  *          value  - value
//  392  *          format - redix
//  393  *          line   - line number
//  394  *
//  395  * @return  None
//  396  **************************************************************************************************/

        RSEG BANKED_CODE:CODE:NOROOT(0)
//  397 void HalLcdWriteStringValue( char *title, uint16 value, uint8 format, uint8 line )
HalLcdWriteStringValue:
          CFI Block cfiBlock4 Using cfiCommon0
          CFI Function HalLcdWriteStringValue
        CODE
//  398 {
        FUNCALL HalLcdWriteStringValue, osal_strlen
        LOCFRAME ISTACK, 0, STACK
        LOCFRAME PSTACK, 0, STACK
        LOCFRAME XSTACK, 40, STACK
        LOCFRAME IOVERLAY, 0, STATIC
        LOCFRAME DOVERLAY, 0, STATIC
        ARGFRAME ISTACK, 0, STACK
        ARGFRAME PSTACK, 0, STACK
        ARGFRAME XSTACK, 40, STACK
        ARGFRAME IOVERLAY, 0, STATIC
        ARGFRAME DOVERLAY, 0, STATIC
        FUNCALL HalLcdWriteStringValue, osal_memcpy
        LOCFRAME ISTACK, 0, STACK
        LOCFRAME PSTACK, 0, STACK
        LOCFRAME XSTACK, 43, STACK
        LOCFRAME IOVERLAY, 0, STATIC
        LOCFRAME DOVERLAY, 0, STATIC
        ARGFRAME ISTACK, 0, STACK
        ARGFRAME PSTACK, 0, STACK
        ARGFRAME XSTACK, 43, STACK
        ARGFRAME IOVERLAY, 0, STATIC
        ARGFRAME DOVERLAY, 0, STATIC
        FUNCALL HalLcdWriteStringValue, _ltoa
        LOCFRAME ISTACK, 0, STACK
        LOCFRAME PSTACK, 0, STACK
        LOCFRAME XSTACK, 42, STACK
        LOCFRAME IOVERLAY, 0, STATIC
        LOCFRAME DOVERLAY, 0, STATIC
        ARGFRAME ISTACK, 0, STACK
        ARGFRAME PSTACK, 0, STACK
        ARGFRAME XSTACK, 42, STACK
        ARGFRAME IOVERLAY, 0, STATIC
        ARGFRAME DOVERLAY, 0, STATIC
        FUNCALL HalLcdWriteStringValue, uart_put_string
        LOCFRAME ISTACK, 0, STACK
        LOCFRAME PSTACK, 0, STACK
        LOCFRAME XSTACK, 40, STACK
        LOCFRAME IOVERLAY, 0, STATIC
        LOCFRAME DOVERLAY, 0, STATIC
        ARGFRAME ISTACK, 0, STACK
        ARGFRAME PSTACK, 0, STACK
        ARGFRAME XSTACK, 40, STACK
        ARGFRAME IOVERLAY, 0, STATIC
        ARGFRAME DOVERLAY, 0, STATIC
        FUNCALL HalLcdWriteStringValue, uart_put_string
        LOCFRAME ISTACK, 0, STACK
        LOCFRAME PSTACK, 0, STACK
        LOCFRAME XSTACK, 40, STACK
        LOCFRAME IOVERLAY, 0, STATIC
        LOCFRAME DOVERLAY, 0, STATIC
        ARGFRAME ISTACK, 0, STACK
        ARGFRAME PSTACK, 0, STACK
        ARGFRAME XSTACK, 40, STACK
        ARGFRAME IOVERLAY, 0, STATIC
        ARGFRAME DOVERLAY, 0, STATIC
        REQUIRE ?V0
        REQUIRE ?V1
        REQUIRE ?V2
        REQUIRE ?V3
        REQUIRE ?V4
        REQUIRE ?V5
        REQUIRE ?V6
        MOV     A,#-0xf
        LCALL   ?BANKED_ENTER_XDATA
          CFI DPH0 load(1, XDATA, add(CFA_XSP16, literal(-1)))
          CFI DPL0 load(1, XDATA, add(CFA_XSP16, literal(-2)))
          CFI ?BRET_EXT load(1, XDATA, add(CFA_XSP16, literal(-3)))
          CFI ?RET_HIGH load(1, XDATA, add(CFA_XSP16, literal(-4)))
          CFI ?RET_LOW load(1, XDATA, add(CFA_XSP16, literal(-5)))
          CFI R7 load(1, XDATA, add(CFA_XSP16, literal(-6)))
          CFI V6 load(1, XDATA, add(CFA_XSP16, literal(-7)))
          CFI V5 load(1, XDATA, add(CFA_XSP16, literal(-8)))
          CFI V4 load(1, XDATA, add(CFA_XSP16, literal(-9)))
          CFI V3 load(1, XDATA, add(CFA_XSP16, literal(-10)))
          CFI V2 load(1, XDATA, add(CFA_XSP16, literal(-11)))
          CFI V1 load(1, XDATA, add(CFA_XSP16, literal(-12)))
          CFI V0 load(1, XDATA, add(CFA_XSP16, literal(-13)))
          CFI VB load(1, XDATA, add(CFA_XSP16, literal(-14)))
          CFI R6 load(1, XDATA, add(CFA_XSP16, literal(-15)))
          CFI CFA_SP SP+0
          CFI CFA_XSP16 add(XSP16, 15)
        ; Saved register size: 15
        ; Auto size: 25
        MOV     A,#-0x19
        LCALL   ?ALLOC_XSTACK8
          CFI CFA_XSP16 add(XSP16, 40)
        MOV     A,R2
        MOV     R6,A
        MOV     A,R3
        MOV     R7,A
        MOV     ?V2,R4
        MOV     ?V3,R5
        MOV     ?V0,R1
//  399 #if (HAL_LCD == TRUE)
//  400   uint8 tmpLen;
//  401   uint8 buf[HAL_LCD_MAX_BUFF];
//  402   uint32 err;
//  403 
//  404   tmpLen = (uint8)osal_strlen( (char*)title );
//  405   osal_memcpy( buf, title, tmpLen );
//  406   buf[tmpLen] = ' ';
//  407   err = (uint32)(value);
//  408   _ltoa( err, &buf[tmpLen+1], format );
//  409   HalLcdWriteString( (char*)buf, line );		
//  410 #endif
//  411 #ifdef DEBUG_UART
//  412     uint8 tmpLen;
//  413   uint8 buf[HAL_LCD_MAX_BUFF];
//  414   uint32 err;
//  415 
//  416   tmpLen = (uint8)osal_strlen( (char*)title );
        ; Setup parameters for call to function osal_strlen
        LCALL   `??osal_strlen::?relay`; Banked call to: osal_strlen
        MOV     A,R2
        MOV     ?V1,A
//  417   osal_memcpy( buf, title, tmpLen );
        ; Setup parameters for call to function osal_memcpy
        MOV     ?V4,R6
        MOV     ?V5,R7
        MOV     ?V6,#0x0
        MOV     R0,#?V4
        LCALL   ?PUSH_XSTACK_I_THREE
          CFI CFA_XSP16 add(XSP16, 43)
        MOV     R4,?V1
        MOV     R5,#0x0
        MOV     A,#0x3
        LCALL   ?XSTACK_DISP101_8
        LCALL   `??osal_memcpy::?relay`; Banked call to: osal_memcpy
        MOV     A,#0x3
        LCALL   ?DEALLOC_XSTACK8
          CFI CFA_XSP16 add(XSP16, 40)
//  418   buf[tmpLen] = ' ';
        MOV     R0,?V1
        LCALL   ?Subroutine0 & 0xFFFF
//  419   err = (uint32)(value);
//  420   _ltoa( err, &buf[tmpLen+1], format );
??CrossCallReturnLabel_0:
        ; Setup parameters for call to function _ltoa
        INC     DPTR
        MOV     ?V4,DPL
        MOV     ?V5,DPH
        MOV     R0,#?V4
        LCALL   ?PUSH_XSTACK_I_TWO
          CFI CFA_XSP16 add(XSP16, 42)
        MOV     R1,?V0
        MOV     R2,?V2
        MOV     R3,?V3
        CLR     A
        MOV     R4,A
        MOV     R5,A
        LCALL   `??_ltoa::?relay`    ; Banked call to: _ltoa
        MOV     A,#0x2
        LCALL   ?DEALLOC_XSTACK8
          CFI CFA_XSP16 add(XSP16, 40)
//  421   DBG_PRINTF(buf);  
        ; Setup parameters for call to function uart_put_string
        MOV     R2,?XSP + 0
        MOV     R3,?XSP + 1
        LCALL   `??uart_put_string::?relay`; Banked call to: uart_put_string
//  422   DBG_PRINTF("\r\n");
        ; Setup parameters for call to function uart_put_string
        MOV     R2,#`?<Constant "\\r\\n">` & 0xff
        MOV     R3,#(`?<Constant "\\r\\n">` >> 8) & 0xff
        LCALL   `??uart_put_string::?relay`; Banked call to: uart_put_string
//  423 #endif
//  424   
//  425 }
        MOV     A,#0x19
        LCALL   ?DEALLOC_XSTACK8
          CFI CFA_XSP16 add(XSP16, 15)
        MOV     R7,#0x7
        LJMP    ?BANKED_LEAVE_XDATA
          CFI R6 SameValue
          CFI VB SameValue
          CFI V0 SameValue
          CFI V1 SameValue
          CFI V2 SameValue
          CFI V3 SameValue
          CFI V4 SameValue
          CFI V5 SameValue
          CFI V6 SameValue
          CFI R7 SameValue
          CFI ?RET_LOW Frame(CFA_SP, 1)
          CFI ?RET_HIGH Frame(CFA_SP, 2)
          CFI ?BRET_EXT Frame(CFA_SP, 3)
          CFI DPL0 SameValue
          CFI DPH0 SameValue
          CFI CFA_SP SP+-3
          CFI CFA_XSP16 XSP16+0
          CFI EndBlock cfiBlock4
//  426 
//  427 /**************************************************************************************************
//  428  * @fn      HalLcdWriteStringValue
//  429  *
//  430  * @brief   Write a string followed by a value to the LCD
//  431  *
//  432  * @param   title   - Title that will be displayed before the value
//  433  *          value1  - value #1
//  434  *          format1 - redix of value #1
//  435  *          value2  - value #2
//  436  *          format2 - redix of value #2
//  437  *          line    - line number
//  438  *
//  439  * @return  None
//  440  **************************************************************************************************/

        RSEG BANKED_CODE:CODE:NOROOT(0)
//  441 void HalLcdWriteStringValueValue( char *title, uint16 value1, uint8 format1,
HalLcdWriteStringValueValue:
          CFI Block cfiBlock5 Using cfiCommon0
          CFI Function HalLcdWriteStringValueValue
        CODE
//  442                                   uint16 value2, uint8 format2, uint8 line )
//  443 {
        FUNCALL HalLcdWriteStringValueValue, osal_strlen
        LOCFRAME ISTACK, 0, STACK
        LOCFRAME PSTACK, 0, STACK
        LOCFRAME XSTACK, 44, STACK
        LOCFRAME IOVERLAY, 0, STATIC
        LOCFRAME DOVERLAY, 0, STATIC
        ARGFRAME ISTACK, 0, STACK
        ARGFRAME PSTACK, 0, STACK
        ARGFRAME XSTACK, 44, STACK
        ARGFRAME IOVERLAY, 0, STATIC
        ARGFRAME DOVERLAY, 0, STATIC
        FUNCALL HalLcdWriteStringValueValue, osal_memcpy
        LOCFRAME ISTACK, 0, STACK
        LOCFRAME PSTACK, 0, STACK
        LOCFRAME XSTACK, 47, STACK
        LOCFRAME IOVERLAY, 0, STATIC
        LOCFRAME DOVERLAY, 0, STATIC
        ARGFRAME ISTACK, 0, STACK
        ARGFRAME PSTACK, 0, STACK
        ARGFRAME XSTACK, 47, STACK
        ARGFRAME IOVERLAY, 0, STATIC
        ARGFRAME DOVERLAY, 0, STATIC
        FUNCALL HalLcdWriteStringValueValue, _ltoa
        LOCFRAME ISTACK, 0, STACK
        LOCFRAME PSTACK, 0, STACK
        LOCFRAME XSTACK, 46, STACK
        LOCFRAME IOVERLAY, 0, STATIC
        LOCFRAME DOVERLAY, 0, STATIC
        ARGFRAME ISTACK, 0, STACK
        ARGFRAME PSTACK, 0, STACK
        ARGFRAME XSTACK, 46, STACK
        ARGFRAME IOVERLAY, 0, STATIC
        ARGFRAME DOVERLAY, 0, STATIC
        FUNCALL HalLcdWriteStringValueValue, osal_strlen
        LOCFRAME ISTACK, 0, STACK
        LOCFRAME PSTACK, 0, STACK
        LOCFRAME XSTACK, 44, STACK
        LOCFRAME IOVERLAY, 0, STATIC
        LOCFRAME DOVERLAY, 0, STATIC
        ARGFRAME ISTACK, 0, STACK
        ARGFRAME PSTACK, 0, STACK
        ARGFRAME XSTACK, 44, STACK
        ARGFRAME IOVERLAY, 0, STATIC
        ARGFRAME DOVERLAY, 0, STATIC
        FUNCALL HalLcdWriteStringValueValue, _ltoa
        LOCFRAME ISTACK, 0, STACK
        LOCFRAME PSTACK, 0, STACK
        LOCFRAME XSTACK, 46, STACK
        LOCFRAME IOVERLAY, 0, STATIC
        LOCFRAME DOVERLAY, 0, STATIC
        ARGFRAME ISTACK, 0, STACK
        ARGFRAME PSTACK, 0, STACK
        ARGFRAME XSTACK, 46, STACK
        ARGFRAME IOVERLAY, 0, STATIC
        ARGFRAME DOVERLAY, 0, STATIC
        FUNCALL HalLcdWriteStringValueValue, uart_put_string
        LOCFRAME ISTACK, 0, STACK
        LOCFRAME PSTACK, 0, STACK
        LOCFRAME XSTACK, 44, STACK
        LOCFRAME IOVERLAY, 0, STATIC
        LOCFRAME DOVERLAY, 0, STATIC
        ARGFRAME ISTACK, 0, STACK
        ARGFRAME PSTACK, 0, STACK
        ARGFRAME XSTACK, 44, STACK
        ARGFRAME IOVERLAY, 0, STATIC
        ARGFRAME DOVERLAY, 0, STATIC
        FUNCALL HalLcdWriteStringValueValue, uart_put_string
        LOCFRAME ISTACK, 0, STACK
        LOCFRAME PSTACK, 0, STACK
        LOCFRAME XSTACK, 44, STACK
        LOCFRAME IOVERLAY, 0, STATIC
        LOCFRAME DOVERLAY, 0, STATIC
        ARGFRAME ISTACK, 0, STACK
        ARGFRAME PSTACK, 0, STACK
        ARGFRAME XSTACK, 44, STACK
        ARGFRAME IOVERLAY, 0, STATIC
        ARGFRAME DOVERLAY, 0, STATIC
        REQUIRE ?V0
        REQUIRE ?V2
        REQUIRE ?V3
        REQUIRE ?V4
        REQUIRE ?V5
        REQUIRE ?V8
        REQUIRE ?V9
        REQUIRE ?V10
        MOV     A,#-0x13
        LCALL   ?BANKED_ENTER_XDATA
          CFI DPH0 load(1, XDATA, add(CFA_XSP16, literal(-1)))
          CFI DPL0 load(1, XDATA, add(CFA_XSP16, literal(-2)))
          CFI ?BRET_EXT load(1, XDATA, add(CFA_XSP16, literal(-3)))
          CFI ?RET_HIGH load(1, XDATA, add(CFA_XSP16, literal(-4)))
          CFI ?RET_LOW load(1, XDATA, add(CFA_XSP16, literal(-5)))
          CFI R7 load(1, XDATA, add(CFA_XSP16, literal(-6)))
          CFI V10 load(1, XDATA, add(CFA_XSP16, literal(-7)))
          CFI V9 load(1, XDATA, add(CFA_XSP16, literal(-8)))
          CFI V8 load(1, XDATA, add(CFA_XSP16, literal(-9)))
          CFI V7 load(1, XDATA, add(CFA_XSP16, literal(-10)))
          CFI V6 load(1, XDATA, add(CFA_XSP16, literal(-11)))
          CFI V5 load(1, XDATA, add(CFA_XSP16, literal(-12)))
          CFI V4 load(1, XDATA, add(CFA_XSP16, literal(-13)))
          CFI V3 load(1, XDATA, add(CFA_XSP16, literal(-14)))
          CFI V2 load(1, XDATA, add(CFA_XSP16, literal(-15)))
          CFI V1 load(1, XDATA, add(CFA_XSP16, literal(-16)))
          CFI V0 load(1, XDATA, add(CFA_XSP16, literal(-17)))
          CFI VB load(1, XDATA, add(CFA_XSP16, literal(-18)))
          CFI R6 load(1, XDATA, add(CFA_XSP16, literal(-19)))
          CFI CFA_SP SP+0
          CFI CFA_XSP16 add(XSP16, 19)
        ; Saved register size: 19
        ; Auto size: 25
        MOV     A,#-0x19
        LCALL   ?ALLOC_XSTACK8
          CFI CFA_XSP16 add(XSP16, 44)
        MOV     A,R2
        MOV     R6,A
        MOV     A,R3
        MOV     R7,A
        MOV     ?V4,R4
        MOV     ?V5,R5
        MOV     ?V0,R1
//  444 
//  445 #if (HAL_LCD == TRUE)
//  446 
//  447   uint8 tmpLen;
//  448   uint8 buf[HAL_LCD_MAX_BUFF];
//  449   uint32 err;
//  450 
//  451   tmpLen = (uint8)osal_strlen( (char*)title );
//  452   if ( tmpLen )
//  453   {
//  454     osal_memcpy( buf, title, tmpLen );
//  455     buf[tmpLen++] = ' ';
//  456   }
//  457 
//  458   err = (uint32)(value1);
//  459   _ltoa( err, &buf[tmpLen], format1 );
//  460   tmpLen = (uint8)osal_strlen( (char*)buf );
//  461 
//  462   buf[tmpLen++] = ',';
//  463   buf[tmpLen++] = ' ';
//  464   err = (uint32)(value2);
//  465   _ltoa( err, &buf[tmpLen], format2 );
//  466 
//  467   HalLcdWriteString( (char *)buf, line );		
//  468 
//  469 #endif
//  470  #ifdef DEBUG_UART
//  471   uint8 tmpLen;
//  472   uint8 buf[HAL_LCD_MAX_BUFF];
//  473   uint32 err;
//  474 
//  475   tmpLen = (uint8)osal_strlen( (char*)title );
        ; Setup parameters for call to function osal_strlen
        LCALL   `??osal_strlen::?relay`; Banked call to: osal_strlen
        MOV     A,R2
        MOV     ?V2,A
//  476   if ( tmpLen )
        JZ      ??HalLcdWriteStringValueValue_0
//  477   {
//  478     osal_memcpy( buf, title, tmpLen );
        ; Setup parameters for call to function osal_memcpy
        MOV     ?V8,R6
        MOV     ?V9,R7
        MOV     ?V10,#0x0
        MOV     R0,#?V8
        LCALL   ?PUSH_XSTACK_I_THREE
          CFI CFA_XSP16 add(XSP16, 47)
        MOV     R4,?V2
        MOV     R5,#0x0
        MOV     A,#0x3
        LCALL   ?XSTACK_DISP101_8
        LCALL   `??osal_memcpy::?relay`; Banked call to: osal_memcpy
        MOV     A,#0x3
        LCALL   ?DEALLOC_XSTACK8
          CFI CFA_XSP16 add(XSP16, 44)
//  479     buf[tmpLen++] = ' ';
        MOV     R0,?V2
        LCALL   ?Subroutine0 & 0xFFFF
//  480   }
??CrossCallReturnLabel_1:
        INC     ?V2
//  481 
//  482   err = (uint32)(value1);
//  483   _ltoa( err, &buf[tmpLen], format1 );
??HalLcdWriteStringValueValue_0:
        ; Setup parameters for call to function _ltoa
        MOV     R0,?V2
        LCALL   ?Subroutine1 & 0xFFFF
??CrossCallReturnLabel_3:
        LCALL   ?PUSH_XSTACK_I_TWO
          CFI CFA_XSP16 add(XSP16, 46)
        MOV     R1,?V0
        MOV     R2,?V4
        MOV     R3,?V5
        CLR     A
        MOV     R4,A
        MOV     R5,A
        LCALL   `??_ltoa::?relay`    ; Banked call to: _ltoa
        MOV     A,#0x2
        LCALL   ?DEALLOC_XSTACK8
          CFI CFA_XSP16 add(XSP16, 44)
//  484   tmpLen = (uint8)osal_strlen( (char*)buf );
        ; Setup parameters for call to function osal_strlen
        MOV     R2,?XSP + 0
        MOV     R3,?XSP + 1
        LCALL   `??osal_strlen::?relay`; Banked call to: osal_strlen
        MOV     A,R2
        MOV     ?V2,A
//  485 
//  486   buf[tmpLen++] = ',';
        MOV     R0,A
        MOV     DPL,?XSP + 0
        MOV     DPH,?XSP + 1
        MOV     A,DPL
        ADD     A,R2
        MOV     DPL,A
        CLR     A
        ADDC    A,DPH
        MOV     DPH,A
        MOV     A,#0x2c
        MOVX    @DPTR,A
//  487   buf[tmpLen++] = ' ';
        INC     R0
        LCALL   ?Subroutine0 & 0xFFFF
//  488   err = (uint32)(value2);
//  489   _ltoa( err, &buf[tmpLen], format2 );
??CrossCallReturnLabel_2:
        ; Setup parameters for call to function _ltoa
        INC     R0
        LCALL   ?Subroutine1 & 0xFFFF
??CrossCallReturnLabel_4:
        LCALL   ?PUSH_XSTACK_I_TWO
          CFI CFA_XSP16 add(XSP16, 46)
        MOV     A,#0x30
        LCALL   ?XSTACK_DISP0_8
        MOVX    A,@DPTR
        MOV     R1,A
        MOV     A,#0x2e
        LCALL   ?XSTACK_DISP0_8
        MOVX    A,@DPTR
        MOV     ?V2,A
        INC     DPTR
        MOVX    A,@DPTR
        MOV     R2,?V2
        MOV     R3,A
        CLR     A
        MOV     R4,A
        MOV     R5,A
        LCALL   `??_ltoa::?relay`    ; Banked call to: _ltoa
        MOV     A,#0x2
        LCALL   ?DEALLOC_XSTACK8
          CFI CFA_XSP16 add(XSP16, 44)
//  490   DBG_PRINTF(buf);  
        ; Setup parameters for call to function uart_put_string
        MOV     R2,?XSP + 0
        MOV     R3,?XSP + 1
        LCALL   `??uart_put_string::?relay`; Banked call to: uart_put_string
//  491   DBG_PRINTF("\r\n");
        ; Setup parameters for call to function uart_put_string
        MOV     R2,#`?<Constant "\\r\\n">` & 0xff
        MOV     R3,#(`?<Constant "\\r\\n">` >> 8) & 0xff
        LCALL   `??uart_put_string::?relay`; Banked call to: uart_put_string
//  492 #endif
//  493 }
        MOV     A,#0x19
        LCALL   ?DEALLOC_XSTACK8
          CFI CFA_XSP16 add(XSP16, 19)
        MOV     R7,#0xb
        LJMP    ?BANKED_LEAVE_XDATA
          CFI R6 SameValue
          CFI VB SameValue
          CFI V0 SameValue
          CFI V1 SameValue
          CFI V2 SameValue
          CFI V3 SameValue
          CFI V4 SameValue
          CFI V5 SameValue
          CFI V6 SameValue
          CFI V7 SameValue
          CFI V8 SameValue
          CFI V9 SameValue
          CFI V10 SameValue
          CFI R7 SameValue
          CFI ?RET_LOW Frame(CFA_SP, 1)
          CFI ?RET_HIGH Frame(CFA_SP, 2)
          CFI ?BRET_EXT Frame(CFA_SP, 3)
          CFI DPL0 SameValue
          CFI DPH0 SameValue
          CFI CFA_SP SP+-3
          CFI CFA_XSP16 XSP16+0
          CFI EndBlock cfiBlock5

        RSEG BANKED_CODE:CODE:NOROOT(0)
?Subroutine1:
          CFI Block cfiCond6 Using cfiCommon0
          CFI Function HalLcdWriteStringValueValue
          CFI Conditional ??CrossCallReturnLabel_3
          CFI R6 load(1, XDATA, add(CFA_XSP16, literal(-19)))
          CFI VB load(1, XDATA, add(CFA_XSP16, literal(-18)))
          CFI V0 load(1, XDATA, add(CFA_XSP16, literal(-17)))
          CFI V1 load(1, XDATA, add(CFA_XSP16, literal(-16)))
          CFI V2 load(1, XDATA, add(CFA_XSP16, literal(-15)))
          CFI V3 load(1, XDATA, add(CFA_XSP16, literal(-14)))
          CFI V4 load(1, XDATA, add(CFA_XSP16, literal(-13)))
          CFI V5 load(1, XDATA, add(CFA_XSP16, literal(-12)))
          CFI V6 load(1, XDATA, add(CFA_XSP16, literal(-11)))
          CFI V7 load(1, XDATA, add(CFA_XSP16, literal(-10)))
          CFI V8 load(1, XDATA, add(CFA_XSP16, literal(-9)))
          CFI V9 load(1, XDATA, add(CFA_XSP16, literal(-8)))
          CFI V10 load(1, XDATA, add(CFA_XSP16, literal(-7)))
          CFI R7 load(1, XDATA, add(CFA_XSP16, literal(-6)))
          CFI ?RET_LOW load(1, XDATA, add(CFA_XSP16, literal(-5)))
          CFI ?RET_HIGH load(1, XDATA, add(CFA_XSP16, literal(-4)))
          CFI ?BRET_EXT load(1, XDATA, add(CFA_XSP16, literal(-3)))
          CFI DPL0 load(1, XDATA, add(CFA_XSP16, literal(-2)))
          CFI DPH0 load(1, XDATA, add(CFA_XSP16, literal(-1)))
          CFI CFA_SP SP+-2
          CFI CFA_XSP16 add(XSP16, 44)
          CFI Block cfiCond7 Using cfiCommon0
          CFI (cfiCond7) Function HalLcdWriteStringValueValue
          CFI (cfiCond7) Conditional ??CrossCallReturnLabel_4
          CFI (cfiCond7) R6 load(1, XDATA, add(CFA_XSP16, literal(-19)))
          CFI (cfiCond7) VB load(1, XDATA, add(CFA_XSP16, literal(-18)))
          CFI (cfiCond7) V0 load(1, XDATA, add(CFA_XSP16, literal(-17)))
          CFI (cfiCond7) V1 load(1, XDATA, add(CFA_XSP16, literal(-16)))
          CFI (cfiCond7) V2 load(1, XDATA, add(CFA_XSP16, literal(-15)))
          CFI (cfiCond7) V3 load(1, XDATA, add(CFA_XSP16, literal(-14)))
          CFI (cfiCond7) V4 load(1, XDATA, add(CFA_XSP16, literal(-13)))
          CFI (cfiCond7) V5 load(1, XDATA, add(CFA_XSP16, literal(-12)))
          CFI (cfiCond7) V6 load(1, XDATA, add(CFA_XSP16, literal(-11)))
          CFI (cfiCond7) V7 load(1, XDATA, add(CFA_XSP16, literal(-10)))
          CFI (cfiCond7) V8 load(1, XDATA, add(CFA_XSP16, literal(-9)))
          CFI (cfiCond7) V9 load(1, XDATA, add(CFA_XSP16, literal(-8)))
          CFI (cfiCond7) V10 load(1, XDATA, add(CFA_XSP16, literal(-7)))
          CFI (cfiCond7) R7 load(1, XDATA, add(CFA_XSP16, literal(-6)))
          CFI (cfiCond7) ?RET_LOW load(1, XDATA, add(CFA_XSP16, literal(-5)))
          CFI (cfiCond7) ?RET_HIGH load(1, XDATA, add(CFA_XSP16, literal(-4)))
          CFI (cfiCond7) ?BRET_EXT load(1, XDATA, add(CFA_XSP16, literal(-3)))
          CFI (cfiCond7) DPL0 load(1, XDATA, add(CFA_XSP16, literal(-2)))
          CFI (cfiCond7) DPH0 load(1, XDATA, add(CFA_XSP16, literal(-1)))
          CFI (cfiCond7) CFA_SP SP+-2
          CFI (cfiCond7) CFA_XSP16 add(XSP16, 44)
          CFI Block cfiPicker8 Using cfiCommon1
          CFI (cfiPicker8) NoFunction
          CFI (cfiPicker8) Picker
        MOV     DPL,?XSP + 0
        MOV     DPH,?XSP + 1
        MOV     A,DPL
        ADD     A,R0
        MOV     ?V2,A
        CLR     A
        ADDC    A,DPH
        MOV     ?V3,A
        MOV     R0,#?V2
        RET
          CFI (cfiCond6) CFA_SP SP+0
          CFI (cfiCond7) CFA_SP SP+0
          CFI (cfiPicker8) CFA_SP SP+0
          CFI EndBlock cfiCond6
          CFI EndBlock cfiCond7
          CFI EndBlock cfiPicker8

        RSEG BANKED_CODE:CODE:NOROOT(0)
?Subroutine0:
          CFI Block cfiCond9 Using cfiCommon0
          CFI Function HalLcdWriteStringValue
          CFI Conditional ??CrossCallReturnLabel_0
          CFI R6 load(1, XDATA, add(CFA_XSP16, literal(-15)))
          CFI VB load(1, XDATA, add(CFA_XSP16, literal(-14)))
          CFI V0 load(1, XDATA, add(CFA_XSP16, literal(-13)))
          CFI V1 load(1, XDATA, add(CFA_XSP16, literal(-12)))
          CFI V2 load(1, XDATA, add(CFA_XSP16, literal(-11)))
          CFI V3 load(1, XDATA, add(CFA_XSP16, literal(-10)))
          CFI V4 load(1, XDATA, add(CFA_XSP16, literal(-9)))
          CFI V5 load(1, XDATA, add(CFA_XSP16, literal(-8)))
          CFI V6 load(1, XDATA, add(CFA_XSP16, literal(-7)))
          CFI R7 load(1, XDATA, add(CFA_XSP16, literal(-6)))
          CFI ?RET_LOW load(1, XDATA, add(CFA_XSP16, literal(-5)))
          CFI ?RET_HIGH load(1, XDATA, add(CFA_XSP16, literal(-4)))
          CFI ?BRET_EXT load(1, XDATA, add(CFA_XSP16, literal(-3)))
          CFI DPL0 load(1, XDATA, add(CFA_XSP16, literal(-2)))
          CFI DPH0 load(1, XDATA, add(CFA_XSP16, literal(-1)))
          CFI CFA_SP SP+-2
          CFI CFA_XSP16 add(XSP16, 40)
          CFI Block cfiCond10 Using cfiCommon0
          CFI (cfiCond10) Function HalLcdWriteStringValueValue
          CFI (cfiCond10) Conditional ??CrossCallReturnLabel_1
          CFI (cfiCond10) R6 load(1, XDATA, add(CFA_XSP16, literal(-19)))
          CFI (cfiCond10) VB load(1, XDATA, add(CFA_XSP16, literal(-18)))
          CFI (cfiCond10) V0 load(1, XDATA, add(CFA_XSP16, literal(-17)))
          CFI (cfiCond10) V1 load(1, XDATA, add(CFA_XSP16, literal(-16)))
          CFI (cfiCond10) V2 load(1, XDATA, add(CFA_XSP16, literal(-15)))
          CFI (cfiCond10) V3 load(1, XDATA, add(CFA_XSP16, literal(-14)))
          CFI (cfiCond10) V4 load(1, XDATA, add(CFA_XSP16, literal(-13)))
          CFI (cfiCond10) V5 load(1, XDATA, add(CFA_XSP16, literal(-12)))
          CFI (cfiCond10) V6 load(1, XDATA, add(CFA_XSP16, literal(-11)))
          CFI (cfiCond10) V7 load(1, XDATA, add(CFA_XSP16, literal(-10)))
          CFI (cfiCond10) V8 load(1, XDATA, add(CFA_XSP16, literal(-9)))
          CFI (cfiCond10) V9 load(1, XDATA, add(CFA_XSP16, literal(-8)))
          CFI (cfiCond10) V10 load(1, XDATA, add(CFA_XSP16, literal(-7)))
          CFI (cfiCond10) R7 load(1, XDATA, add(CFA_XSP16, literal(-6)))
          CFI (cfiCond10) ?RET_LOW load(1, XDATA, add(CFA_XSP16, literal(-5)))
          CFI (cfiCond10) ?RET_HIGH load(1, XDATA, add(CFA_XSP16, literal(-4)))
          CFI (cfiCond10) ?BRET_EXT load(1, XDATA, add(CFA_XSP16, literal(-3)))
          CFI (cfiCond10) DPL0 load(1, XDATA, add(CFA_XSP16, literal(-2)))
          CFI (cfiCond10) DPH0 load(1, XDATA, add(CFA_XSP16, literal(-1)))
          CFI (cfiCond10) CFA_SP SP+-2
          CFI (cfiCond10) CFA_XSP16 add(XSP16, 44)
          CFI Block cfiCond11 Using cfiCommon0
          CFI (cfiCond11) Function HalLcdWriteStringValueValue
          CFI (cfiCond11) Conditional ??CrossCallReturnLabel_2
          CFI (cfiCond11) R6 load(1, XDATA, add(CFA_XSP16, literal(-19)))
          CFI (cfiCond11) VB load(1, XDATA, add(CFA_XSP16, literal(-18)))
          CFI (cfiCond11) V0 load(1, XDATA, add(CFA_XSP16, literal(-17)))
          CFI (cfiCond11) V1 load(1, XDATA, add(CFA_XSP16, literal(-16)))
          CFI (cfiCond11) V2 load(1, XDATA, add(CFA_XSP16, literal(-15)))
          CFI (cfiCond11) V3 load(1, XDATA, add(CFA_XSP16, literal(-14)))
          CFI (cfiCond11) V4 load(1, XDATA, add(CFA_XSP16, literal(-13)))
          CFI (cfiCond11) V5 load(1, XDATA, add(CFA_XSP16, literal(-12)))
          CFI (cfiCond11) V6 load(1, XDATA, add(CFA_XSP16, literal(-11)))
          CFI (cfiCond11) V7 load(1, XDATA, add(CFA_XSP16, literal(-10)))
          CFI (cfiCond11) V8 load(1, XDATA, add(CFA_XSP16, literal(-9)))
          CFI (cfiCond11) V9 load(1, XDATA, add(CFA_XSP16, literal(-8)))
          CFI (cfiCond11) V10 load(1, XDATA, add(CFA_XSP16, literal(-7)))
          CFI (cfiCond11) R7 load(1, XDATA, add(CFA_XSP16, literal(-6)))
          CFI (cfiCond11) ?RET_LOW load(1, XDATA, add(CFA_XSP16, literal(-5)))
          CFI (cfiCond11) ?RET_HIGH load(1, XDATA, add(CFA_XSP16, literal(-4)))
          CFI (cfiCond11) ?BRET_EXT load(1, XDATA, add(CFA_XSP16, literal(-3)))
          CFI (cfiCond11) DPL0 load(1, XDATA, add(CFA_XSP16, literal(-2)))
          CFI (cfiCond11) DPH0 load(1, XDATA, add(CFA_XSP16, literal(-1)))
          CFI (cfiCond11) CFA_SP SP+-2
          CFI (cfiCond11) CFA_XSP16 add(XSP16, 44)
          CFI Block cfiPicker12 Using cfiCommon1
          CFI (cfiPicker12) NoFunction
          CFI (cfiPicker12) Picker
        MOV     DPL,?XSP + 0
        MOV     DPH,?XSP + 1
        MOV     A,DPL
        ADD     A,R0
        MOV     DPL,A
        CLR     A
        ADDC    A,DPH
        MOV     DPH,A
        MOV     A,#0x20
        MOVX    @DPTR,A
        RET
          CFI (cfiCond9) CFA_SP SP+0
          CFI (cfiCond10) CFA_SP SP+0
          CFI (cfiCond11) CFA_SP SP+0
          CFI (cfiPicker12) CFA_SP SP+0
          CFI EndBlock cfiCond9
          CFI EndBlock cfiCond10
          CFI EndBlock cfiCond11
          CFI EndBlock cfiPicker12
//  494 
//  495 /**************************************************************************************************
//  496  * @fn      HalLcdDisplayPercentBar
//  497  *
//  498  * @brief   Display percentage bar on the LCD
//  499  *
//  500  * @param   title   -
//  501  *          value   -
//  502  *
//  503  * @return  None
//  504  **************************************************************************************************/

        RSEG BANKED_CODE:CODE:NOROOT(0)
//  505 void HalLcdDisplayPercentBar( char *title, uint8 value )
HalLcdDisplayPercentBar:
          CFI Block cfiBlock13 Using cfiCommon0
          CFI Function HalLcdDisplayPercentBar
        CODE
//  506 {
        ; Saved register size: 0
        ; Auto size: 0
//  507 #if (HAL_LCD == TRUE)
//  508 
//  509   uint8 percent;
//  510   uint8 leftOver;
//  511   uint8 buf[17];
//  512   uint32 err;
//  513   uint8 x;
//  514 
//  515   /* Write the title: */
//  516   HalLcdWriteString( title, HAL_LCD_LINE_1 );
//  517 
//  518   if ( value > 100 )
//  519     value = 100;
//  520 
//  521   /* convert to blocks */
//  522   percent = (uint8)(value / 10);
//  523   leftOver = (uint8)(value % 10);
//  524 
//  525   /* Make window */
//  526   osal_memcpy( buf, "[          ]  ", 15 );
//  527 
//  528   for ( x = 0; x < percent; x ++ )
//  529   {
//  530     buf[1+x] = '>';
//  531   }
//  532 
//  533   if ( leftOver >= 5 )
//  534     buf[1+x] = '+';
//  535 
//  536   err = (uint32)value;
//  537   _ltoa( err, (uint8*)&buf[13], 10 );
//  538 
//  539   HalLcdWriteString( (char*)buf, HAL_LCD_LINE_2 );
//  540 
//  541 #endif
//  542 
//  543 }
        LJMP    ?BRET
          CFI EndBlock cfiBlock13

        RSEG BANK_RELAYS:CODE:REORDER:NOROOT(0)
`??HalLcdInit::?relay`:
        CODE
        LCALL   ?BDISPATCH
        DATA24
        DC24    HalLcdInit

        RSEG BANK_RELAYS:CODE:REORDER:NOROOT(0)
`??HalLcdWriteString::?relay`:
        CODE
        LCALL   ?BDISPATCH
        DATA24
        DC24    HalLcdWriteString

        RSEG BANK_RELAYS:CODE:REORDER:NOROOT(0)
`??HalLcdWriteValue::?relay`:
        CODE
        LCALL   ?BDISPATCH
        DATA24
        DC24    HalLcdWriteValue

        RSEG BANK_RELAYS:CODE:REORDER:NOROOT(0)
`??HalLcdWriteScreen::?relay`:
        CODE
        LCALL   ?BDISPATCH
        DATA24
        DC24    HalLcdWriteScreen

        RSEG BANK_RELAYS:CODE:REORDER:NOROOT(0)
`??HalLcdWriteStringValue::?relay`:
        CODE
        LCALL   ?BDISPATCH
        DATA24
        DC24    HalLcdWriteStringValue

        RSEG BANK_RELAYS:CODE:REORDER:NOROOT(0)
`??HalLcdWriteStringValueValue::?relay`:
        CODE
        LCALL   ?BDISPATCH
        DATA24
        DC24    HalLcdWriteStringValueValue

        RSEG BANK_RELAYS:CODE:REORDER:NOROOT(0)
`??HalLcdDisplayPercentBar::?relay`:
        CODE
        LCALL   ?BDISPATCH
        DATA24
        DC24    HalLcdDisplayPercentBar

        RSEG XDATA_ROM_C:CONST:REORDER:NOROOT(0)
        DATA8
`?<Constant "\\r\\n">`:
        DB "\015\012"

        END
//  544 
//  545 #if (HAL_LCD == TRUE)
//  546 /**************************************************************************************************
//  547  *                                    HARDWARE LCD
//  548  **************************************************************************************************/
//  549 
//  550 /**************************************************************************************************
//  551  * @fn      halLcd_ConfigIO
//  552  *
//  553  * @brief   Configure IO lines needed for LCD control.
//  554  *
//  555  * @param   None
//  556  *
//  557  * @return  None
//  558  **************************************************************************************************/
//  559 static void halLcd_ConfigIO(void)
//  560 {
//  561   /* GPIO configuration */
//  562   HAL_CONFIG_IO_OUTPUT(HAL_LCD_MODE_PORT,  HAL_LCD_MODE_PIN,  1);
//  563   HAL_CONFIG_IO_OUTPUT(HAL_LCD_RESET_PORT, HAL_LCD_RESET_PIN, 1);
//  564   HAL_CONFIG_IO_OUTPUT(HAL_LCD_CS_PORT,    HAL_LCD_CS_PIN,    1);
//  565 }
//  566 
//  567 /**************************************************************************************************
//  568  * @fn      halLcd_ConfigSPI
//  569  *
//  570  * @brief   Configure SPI lines needed for talking to LCD.
//  571  *
//  572  * @param   None
//  573  *
//  574  * @return  None
//  575  **************************************************************************************************/
//  576 static void halLcd_ConfigSPI(void)
//  577 {
//  578   /* UART/SPI Peripheral configuration */
//  579 
//  580    uint8 baud_exponent;
//  581    uint8 baud_mantissa;
//  582 
//  583   /* Set SPI on UART 1 alternative 2 */
//  584   PERCFG |= 0x02;
//  585 
//  586   /* Configure clk, master out and master in lines */
//  587   HAL_CONFIG_IO_PERIPHERAL(HAL_LCD_CLK_PORT,  HAL_LCD_CLK_PIN);
//  588   HAL_CONFIG_IO_PERIPHERAL(HAL_LCD_MOSI_PORT, HAL_LCD_MOSI_PIN);
//  589   HAL_CONFIG_IO_PERIPHERAL(HAL_LCD_MISO_PORT, HAL_LCD_MISO_PIN);
//  590 
//  591 
//  592   /* Set SPI speed to 1 MHz (the values assume system clk of 32MHz)
//  593    * Confirm on board that this results in 1MHz spi clk.
//  594    */
//  595   baud_exponent = 15;
//  596   baud_mantissa =  0;
//  597 
//  598   /* Configure SPI */
//  599   U1UCR  = 0x80;      /* Flush and goto IDLE state. 8-N-1. */
//  600   U1CSR  = 0x00;      /* SPI mode, master. */
//  601   U1GCR  = HAL_SPI_TRANSFER_MSB_FIRST | HAL_SPI_CLOCK_PHA_0 | HAL_SPI_CLOCK_POL_LO | baud_exponent;
//  602   U1BAUD = baud_mantissa;
//  603 }
//  604 
//  605 /**************************************************************************************************
//  606  * @fn      HalLcd_HW_Init
//  607  *
//  608  * @brief   Initilize HW LCD Driver.
//  609  *
//  610  * @param   None
//  611  *
//  612  * @return  None
//  613  **************************************************************************************************/
//  614 void HalLcd_HW_Init(void)
//  615 {
//  616   /* Initialize LCD IO lines */
//  617   halLcd_ConfigIO();
//  618 
//  619   /* Initialize SPI */
//  620   halLcd_ConfigSPI();
//  621 
//  622   /* Perform reset */
//  623   LCD_ACTIVATE_RESET();
//  624   HalLcd_HW_WaitUs(15000); // 15 ms
//  625   LCD_RELEASE_RESET();
//  626   HalLcd_HW_WaitUs(15); // 15 us
//  627 
//  628   /* Perform the initialization sequence */
//  629   FUNCTION_SET(CGRAM | COM_FORWARD | THREE_LINE);
//  630 
//  631   /* Set contrast */
//  632   HalLcd_HW_SetContrast(15);
//  633 
//  634   /* Set power */
//  635   SET_POWER_SAVE_MODE(OSC_OFF | POWER_SAVE_ON);
//  636   SET_POWER_CTRL(VOLTAGE_DIVIDER_ON | CONVERTER_AND_REG_ON);
//  637   SET_BIAS_CTRL(BIAS_1_5);
//  638   HalLcd_HW_WaitUs(21000);// 21 ms
//  639 
//  640   /* Clear the display */
//  641   HalLcd_HW_Clear();
//  642   HalLcd_HW_ClearAllSpecChars();
//  643   SET_DISPLAY_CTRL(DISPLAY_CTRL_ON | DISPLAY_CTRL_BLINK_OFF | DISPLAY_CTRL_CURSOR_OFF);
//  644 }
//  645 
//  646 /**************************************************************************************************
//  647  * @fn      HalLcd_HW_Control
//  648  *
//  649  * @brief   Write 1 command to the LCD
//  650  *
//  651  * @param   uint8 cmd - command to be written to the LCD
//  652  *
//  653  * @return  None
//  654  **************************************************************************************************/
//  655 void HalLcd_HW_Control(uint8 cmd)
//  656 {
//  657   LCD_SPI_BEGIN();
//  658   LCD_DO_CONTROL();
//  659   LCD_SPI_TX(cmd);
//  660   LCD_SPI_WAIT_RXRDY();
//  661   LCD_SPI_END();
//  662 }
//  663 
//  664 /**************************************************************************************************
//  665  * @fn      HalLcd_HW_Write
//  666  *
//  667  * @brief   Write 1 byte to the LCD
//  668  *
//  669  * @param   uint8 data - data to be written to the LCD
//  670  *
//  671  * @return  None
//  672  **************************************************************************************************/
//  673 void HalLcd_HW_Write(uint8 data)
//  674 {
//  675   LCD_SPI_BEGIN();
//  676   LCD_DO_WRITE();
//  677   LCD_SPI_TX(data);
//  678   LCD_SPI_WAIT_RXRDY();
//  679   LCD_SPI_END();
//  680 }
//  681 
//  682 /**************************************************************************************************
//  683  * @fn          HalLcd_HW_SetContrast
//  684  *
//  685  * @brief       Set display contrast
//  686  *
//  687  * @param       uint8 value - contrast value
//  688  *
//  689  * @return      none
//  690  **************************************************************************************************/
//  691 void HalLcd_HW_SetContrast(uint8 value)
//  692 {
//  693   SET_ICONRAM_ADDR(CONTRAST_CTRL_REGISTER);
//  694   HalLcd_HW_Write(value);
//  695 }
//  696 
//  697 /**************************************************************************************************
//  698  * @fn      HalLcd_HW_Clear
//  699  *
//  700  * @brief   Clear the HW LCD
//  701  *
//  702  * @param   None
//  703  *
//  704  * @return  None
//  705  **************************************************************************************************/
//  706 void HalLcd_HW_Clear(void)
//  707 {
//  708   uint8 n;
//  709 
//  710   SET_DDRAM_ADDR(0x00);
//  711   for (n = 0; n < (LCD_MAX_LINE_COUNT * HAL_LCD_MAX_CHARS); n++)
//  712   {
//  713     HalLcd_HW_Write(' ');
//  714   }
//  715 }
//  716 
//  717 /**************************************************************************************************
//  718  * @fn      HalLcd_HW_ClearAllSpecChars
//  719  *
//  720  * @brief   Clear all special chars
//  721  *
//  722  * @param   None
//  723  *
//  724  * @return  None
//  725  **************************************************************************************************/
//  726 void HalLcd_HW_ClearAllSpecChars(void)
//  727 {
//  728   uint8 n = 0;
//  729 
//  730   SET_GCRAM_CHAR(0);
//  731   for (n = 0; n < (8 * 8); n++)
//  732   {
//  733     HalLcd_HW_Write(0x00);
//  734   }
//  735 }
//  736 
//  737 /**************************************************************************************************
//  738  * @fn      HalLcd_HW_WriteChar
//  739  *
//  740  * @brief   Write one char to the display
//  741  *
//  742  * @param   uint8 line - line number that the char will be displayed
//  743  *          uint8 col - colum where the char will be displayed
//  744  *
//  745  * @return  None
//  746  **************************************************************************************************/
//  747 void HalLcd_HW_WriteChar(uint8 line, uint8 col, char text)
//  748 {
//  749   if (col < HAL_LCD_MAX_CHARS)
//  750   {
//  751     SET_DDRAM_ADDR((line - 1) * HAL_LCD_MAX_CHARS + col);
//  752     HalLcd_HW_Write(text);
//  753   }
//  754   else
//  755   {
//  756     return;
//  757   }
//  758 }
//  759 
//  760 /**************************************************************************************************
//  761  * @fn          halLcdWriteLine
//  762  *
//  763  * @brief       Write one line on display
//  764  *
//  765  * @param       uint8 line - display line
//  766  *              char *pText - text buffer to write
//  767  *
//  768  * @return      none
//  769  **************************************************************************************************/
//  770 void HalLcd_HW_WriteLine(uint8 line, const char *pText)
//  771 {
//  772   uint8 count;
//  773   uint8 totalLength = (uint8)osal_strlen( (char *)pText );
//  774 
//  775   /* Write the content first */
//  776   for (count=0; count<totalLength; count++)
//  777   {
//  778     HalLcd_HW_WriteChar(line, count, (*(pText++)));
//  779   }
//  780 
//  781   /* Write blank spaces to rest of the line */
//  782   for(count=totalLength; count<HAL_LCD_MAX_CHARS;count++)
//  783   {
//  784     HalLcd_HW_WriteChar(line, count, ' ');
//  785   }
//  786 }
//  787 
//  788 /**************************************************************************************************
//  789  * @fn      HalLcd_HW_WaitUs
//  790  *
//  791  * @brief   wait for x us. @ 32MHz MCU clock it takes 32 "nop"s for 1 us delay.
//  792  *
//  793  * @param   x us. range[0-65536]
//  794  *
//  795  * @return  None
//  796  **************************************************************************************************/
//  797 void HalLcd_HW_WaitUs(uint16 microSecs)
//  798 {
//  799   while(microSecs--)
//  800   {
//  801     /* 32 NOPs == 1 usecs */
//  802     asm("nop"); asm("nop"); asm("nop"); asm("nop"); asm("nop");
//  803     asm("nop"); asm("nop"); asm("nop"); asm("nop"); asm("nop");
//  804     asm("nop"); asm("nop"); asm("nop"); asm("nop"); asm("nop");
//  805     asm("nop"); asm("nop"); asm("nop"); asm("nop"); asm("nop");
//  806     asm("nop"); asm("nop"); asm("nop"); asm("nop"); asm("nop");
//  807     asm("nop"); asm("nop"); asm("nop"); asm("nop"); asm("nop");
//  808     asm("nop"); asm("nop");
//  809   }
//  810 }
//  811 #endif
//  812 
//  813 
//  814 /**************************************************************************************************
//  815 **************************************************************************************************/
//  816 
//  817 
//  818 
// 
// 461 bytes in segment BANKED_CODE
//  42 bytes in segment BANK_RELAYS
//   3 bytes in segment XDATA_ROM_C
// 
// 503 bytes of CODE  memory
//   3 bytes of CONST memory
//
//Errors: none
//Warnings: 3
