###############################################################################
#
# IAR ELF Linker V7.80.2.11947/W32 for ARM                09/Aug/2018  19:15:37
# Copyright 2007-2016 IAR Systems AB.
#
#    Output file  =  
#        D:\03.OneDrive\OneDrive\outsource\smartfarm_hosco\fw_smf_v1.1\SF_FW_NODE\Release\Exe\SF_FW_NODE.out
#    Map file     =  
#        D:\03.OneDrive\OneDrive\outsource\smartfarm_hosco\fw_smf_v1.1\SF_FW_NODE\Release\List\SF_FW_NODE.map
#    Command line =  
#        D:\03.OneDrive\OneDrive\outsource\smartfarm_hosco\fw_smf_v1.1\SF_FW_NODE\Release\Obj\BH1750.o
#        D:\03.OneDrive\OneDrive\outsource\smartfarm_hosco\fw_smf_v1.1\SF_FW_NODE\Release\Obj\board.o
#        D:\03.OneDrive\OneDrive\outsource\smartfarm_hosco\fw_smf_v1.1\SF_FW_NODE\Release\Obj\clock_config.o
#        D:\03.OneDrive\OneDrive\outsource\smartfarm_hosco\fw_smf_v1.1\SF_FW_NODE\Release\Obj\croutine.o
#        D:\03.OneDrive\OneDrive\outsource\smartfarm_hosco\fw_smf_v1.1\SF_FW_NODE\Release\Obj\DeviceControl.o
#        D:\03.OneDrive\OneDrive\outsource\smartfarm_hosco\fw_smf_v1.1\SF_FW_NODE\Release\Obj\diskio.o
#        D:\03.OneDrive\OneDrive\outsource\smartfarm_hosco\fw_smf_v1.1\SF_FW_NODE\Release\Obj\EC_Murata.o
#        D:\03.OneDrive\OneDrive\outsource\smartfarm_hosco\fw_smf_v1.1\SF_FW_NODE\Release\Obj\event_groups.o
#        D:\03.OneDrive\OneDrive\outsource\smartfarm_hosco\fw_smf_v1.1\SF_FW_NODE\Release\Obj\ff.o
#        D:\03.OneDrive\OneDrive\outsource\smartfarm_hosco\fw_smf_v1.1\SF_FW_NODE\Release\Obj\ffsystem.o
#        D:\03.OneDrive\OneDrive\outsource\smartfarm_hosco\fw_smf_v1.1\SF_FW_NODE\Release\Obj\ffunicode.o
#        D:\03.OneDrive\OneDrive\outsource\smartfarm_hosco\fw_smf_v1.1\SF_FW_NODE\Release\Obj\FileAccess.o
#        D:\03.OneDrive\OneDrive\outsource\smartfarm_hosco\fw_smf_v1.1\SF_FW_NODE\Release\Obj\fsl_clock.o
#        D:\03.OneDrive\OneDrive\outsource\smartfarm_hosco\fw_smf_v1.1\SF_FW_NODE\Release\Obj\fsl_common.o
#        D:\03.OneDrive\OneDrive\outsource\smartfarm_hosco\fw_smf_v1.1\SF_FW_NODE\Release\Obj\fsl_debug_console.o
#        D:\03.OneDrive\OneDrive\outsource\smartfarm_hosco\fw_smf_v1.1\SF_FW_NODE\Release\Obj\fsl_dspi.o
#        D:\03.OneDrive\OneDrive\outsource\smartfarm_hosco\fw_smf_v1.1\SF_FW_NODE\Release\Obj\fsl_dspi_freertos.o
#        D:\03.OneDrive\OneDrive\outsource\smartfarm_hosco\fw_smf_v1.1\SF_FW_NODE\Release\Obj\fsl_flash.o
#        D:\03.OneDrive\OneDrive\outsource\smartfarm_hosco\fw_smf_v1.1\SF_FW_NODE\Release\Obj\fsl_ftm.o
#        D:\03.OneDrive\OneDrive\outsource\smartfarm_hosco\fw_smf_v1.1\SF_FW_NODE\Release\Obj\fsl_gpio.o
#        D:\03.OneDrive\OneDrive\outsource\smartfarm_hosco\fw_smf_v1.1\SF_FW_NODE\Release\Obj\fsl_i2c.o
#        D:\03.OneDrive\OneDrive\outsource\smartfarm_hosco\fw_smf_v1.1\SF_FW_NODE\Release\Obj\fsl_i2c_freertos.o
#        D:\03.OneDrive\OneDrive\outsource\smartfarm_hosco\fw_smf_v1.1\SF_FW_NODE\Release\Obj\fsl_lptmr.o
#        D:\03.OneDrive\OneDrive\outsource\smartfarm_hosco\fw_smf_v1.1\SF_FW_NODE\Release\Obj\fsl_sd.o
#        D:\03.OneDrive\OneDrive\outsource\smartfarm_hosco\fw_smf_v1.1\SF_FW_NODE\Release\Obj\fsl_sd_disk.o
#        D:\03.OneDrive\OneDrive\outsource\smartfarm_hosco\fw_smf_v1.1\SF_FW_NODE\Release\Obj\fsl_sdhc.o
#        D:\03.OneDrive\OneDrive\outsource\smartfarm_hosco\fw_smf_v1.1\SF_FW_NODE\Release\Obj\fsl_sdmmc_common.o
#        D:\03.OneDrive\OneDrive\outsource\smartfarm_hosco\fw_smf_v1.1\SF_FW_NODE\Release\Obj\fsl_sdmmc_event.o
#        D:\03.OneDrive\OneDrive\outsource\smartfarm_hosco\fw_smf_v1.1\SF_FW_NODE\Release\Obj\fsl_sdmmc_host.o
#        D:\03.OneDrive\OneDrive\outsource\smartfarm_hosco\fw_smf_v1.1\SF_FW_NODE\Release\Obj\fsl_sim.o
#        D:\03.OneDrive\OneDrive\outsource\smartfarm_hosco\fw_smf_v1.1\SF_FW_NODE\Release\Obj\fsl_smc.o
#        D:\03.OneDrive\OneDrive\outsource\smartfarm_hosco\fw_smf_v1.1\SF_FW_NODE\Release\Obj\fsl_tickless_systick.o
#        D:\03.OneDrive\OneDrive\outsource\smartfarm_hosco\fw_smf_v1.1\SF_FW_NODE\Release\Obj\fsl_uart.o
#        D:\03.OneDrive\OneDrive\outsource\smartfarm_hosco\fw_smf_v1.1\SF_FW_NODE\Release\Obj\fsl_uart_freertos.o
#        D:\03.OneDrive\OneDrive\outsource\smartfarm_hosco\fw_smf_v1.1\SF_FW_NODE\Release\Obj\fsl_wdog.o
#        D:\03.OneDrive\OneDrive\outsource\smartfarm_hosco\fw_smf_v1.1\SF_FW_NODE\Release\Obj\heap_4.o
#        D:\03.OneDrive\OneDrive\outsource\smartfarm_hosco\fw_smf_v1.1\SF_FW_NODE\Release\Obj\I2C.o
#        D:\03.OneDrive\OneDrive\outsource\smartfarm_hosco\fw_smf_v1.1\SF_FW_NODE\Release\Obj\list.o
#        D:\03.OneDrive\OneDrive\outsource\smartfarm_hosco\fw_smf_v1.1\SF_FW_NODE\Release\Obj\main.o
#        D:\03.OneDrive\OneDrive\outsource\smartfarm_hosco\fw_smf_v1.1\SF_FW_NODE\Release\Obj\PacketHandle.o
#        D:\03.OneDrive\OneDrive\outsource\smartfarm_hosco\fw_smf_v1.1\SF_FW_NODE\Release\Obj\PH_Sensor.o
#        D:\03.OneDrive\OneDrive\outsource\smartfarm_hosco\fw_smf_v1.1\SF_FW_NODE\Release\Obj\pin_mux.o
#        D:\03.OneDrive\OneDrive\outsource\smartfarm_hosco\fw_smf_v1.1\SF_FW_NODE\Release\Obj\port.o
#        D:\03.OneDrive\OneDrive\outsource\smartfarm_hosco\fw_smf_v1.1\SF_FW_NODE\Release\Obj\portasm.o
#        D:\03.OneDrive\OneDrive\outsource\smartfarm_hosco\fw_smf_v1.1\SF_FW_NODE\Release\Obj\ProcessTask.o
#        D:\03.OneDrive\OneDrive\outsource\smartfarm_hosco\fw_smf_v1.1\SF_FW_NODE\Release\Obj\queue.o
#        D:\03.OneDrive\OneDrive\outsource\smartfarm_hosco\fw_smf_v1.1\SF_FW_NODE\Release\Obj\SDCardTask.o
#        D:\03.OneDrive\OneDrive\outsource\smartfarm_hosco\fw_smf_v1.1\SF_FW_NODE\Release\Obj\SensorTask.o
#        D:\03.OneDrive\OneDrive\outsource\smartfarm_hosco\fw_smf_v1.1\SF_FW_NODE\Release\Obj\SHT11.o
#        D:\03.OneDrive\OneDrive\outsource\smartfarm_hosco\fw_smf_v1.1\SF_FW_NODE\Release\Obj\SHT11Soil.o
#        D:\03.OneDrive\OneDrive\outsource\smartfarm_hosco\fw_smf_v1.1\SF_FW_NODE\Release\Obj\SPI.o
#        D:\03.OneDrive\OneDrive\outsource\smartfarm_hosco\fw_smf_v1.1\SF_FW_NODE\Release\Obj\startup_MK64F12.o
#        D:\03.OneDrive\OneDrive\outsource\smartfarm_hosco\fw_smf_v1.1\SF_FW_NODE\Release\Obj\system_MK64F12.o
#        D:\03.OneDrive\OneDrive\outsource\smartfarm_hosco\fw_smf_v1.1\SF_FW_NODE\Release\Obj\tasks.o
#        D:\03.OneDrive\OneDrive\outsource\smartfarm_hosco\fw_smf_v1.1\SF_FW_NODE\Release\Obj\timers.o
#        D:\03.OneDrive\OneDrive\outsource\smartfarm_hosco\fw_smf_v1.1\SF_FW_NODE\Release\Obj\UART.o
#        D:\03.OneDrive\OneDrive\outsource\smartfarm_hosco\fw_smf_v1.1\SF_FW_NODE\Release\Obj\UserFile.o
#        D:\03.OneDrive\OneDrive\outsource\smartfarm_hosco\fw_smf_v1.1\SF_FW_NODE\Release\Obj\WhoAmITask.o
#        --redirect _Printf=_PrintfFull --redirect _Scanf=_ScanfSmall -o
#        D:\03.OneDrive\OneDrive\outsource\smartfarm_hosco\fw_smf_v1.1\SF_FW_NODE\Release\Exe\SF_FW_NODE.out
#        --map
#        D:\03.OneDrive\OneDrive\outsource\smartfarm_hosco\fw_smf_v1.1\SF_FW_NODE\Release\List\SF_FW_NODE.map
#        --config
#        D:\03.OneDrive\OneDrive\outsource\smartfarm_hosco\fw_smf_v1.1\SF_FW_NODE/MK64FN1M0xxx12_flash.icf
#        --semihosting --entry __iar_program_start --vfe
#
###############################################################################

*******************************************************************************
*** RUNTIME MODEL ATTRIBUTES
***

CppFlavor       = *
__Heap_Handler  = DLMalloc
__SystemLibrary = DLib


*******************************************************************************
*** PLACEMENT SUMMARY
***

"A0":  place at 0x00000000 { ro section .intvec };
"P1":  place in [from 0x00000400 to 0x0000040f] { section FlashConfig };
"P2":  place in [from 0x00000000 to 0x000003ff] |
                [from 0x00000410 to 0x000fffff] { ro };
"P3":  place in [from 0x1fff0000 to 0x1fffffff] |
                [from 0x20000000 to 0x2002fbff] { block RW };
"P4":  place in [from 0x1fff0000 to 0x1fffffff] |
                [from 0x20000000 to 0x2002fbff] { block ZI };
"P6":  place in [from 0x2002fc00 to 0x2002ffff] { block CSTACK };
initialize by copy { rw, section .textrw };

  Section               Kind        Address     Size  Object
  -------               ----        -------     ----  ------
"A0":                                          0x400
  .intvec               ro code  0x00000000    0x400  startup_MK64F12.o [1]
                               - 0x00000400    0x400

"P1":                                           0x10
  FlashConfig           ro code  0x00000400     0x10  startup_MK64F12.o [1]
                               - 0x00000410     0x10

"P2":                                        0x1eb20
  .rodata               const    0x00000410   0x7378  ffunicode.o [1]
  .rodata               const    0x00007788   0x7378  ffunicode.o [1]
  .text                 ro code  0x0000eb00   0x1fca  ff.o [1]
  .text                 ro code  0x00010aca      0xa  xsprout.o [3]
  .text                 ro code  0x00010ad4    0x188  ffunicode.o [1]
  .text                 ro code  0x00010c5c     0x74  diskio.o [1]
  .text                 ro code  0x00010cd0     0xf8  fsl_sd_disk.o [1]
  .text                 ro code  0x00010dc8   0x156e  fsl_sd.o [1]
  .text                 ro code  0x00012336      0x2  startup_MK64F12.o [1]
  .text                 ro code  0x00012338     0x66  ABImemset.o [5]
  .text                 ro code  0x0001239e      0x2  startup_MK64F12.o [1]
  .text                 ro code  0x000123a0     0x24  ABIassert.o [6]
  .text                 ro code  0x000123c4    0x320  fsl_sdmmc_common.o [1]
  .text                 ro code  0x000126e4      0x6  ABImemclr4.o [5]
  .text                 ro code  0x000126ea      0x2  startup_MK64F12.o [1]
  .text                 ro code  0x000126ec     0x76  ABImemcpy_unaligned.o [5]
  .text                 ro code  0x00012762      0x2  startup_MK64F12.o [1]
  .text                 ro code  0x00012764    0xb84  fsl_sdhc.o [1]
  .text                 ro code  0x000132e8    0x362  fsl_sdmmc_host.o [1]
  .text                 ro code  0x0001364a      0x6  abort.o [3]
  .text                 ro code  0x00013650     0x32  ABImemset48.o [5]
  .text                 ro code  0x00013682      0x2  startup_MK64F12.o [1]
  .text                 ro code  0x00013684    0x106  fsl_sdmmc_event.o [1]
  .text                 ro code  0x0001378a      0x2  startup_MK64F12.o [1]
  .text                 ro code  0x0001378c     0x14  exit.o [6]
  .text                 ro code  0x000137a0    0x7fe  queue.o [1]
  .rodata               const    0x00013f9e      0x1  fsl_sdhc.o [1]
  .text                 ro code  0x00013fa0    0xc2c  tasks.o [1]
  .text                 ro code  0x00014bcc    0x230  port.o [1]
  .text                 ro code  0x00014dfc     0x98  list.o [1]
  .text                 ro code  0x00014e94    0x260  heap_4.o [1]
  .text                 ro code  0x000150f4    0x420  timers.o [1]
  .text                 ro code  0x00015514     0x30  fsl_tickless_systick.o [1]
  CODE                  ro code  0x00015544     0xa8  portasm.o [1]
  .text                 ro code  0x000155ec    0xdd2  xprintffull.o [3]
  .text                 ro code  0x000163c0     0x16  strchr.o [5]
  .text                 ro code  0x000163d8     0x36  strlen.o [5]
  .text                 ro code  0x00016410     0x58  memchr.o [5]
  .text                 ro code  0x00016468    0x132  I64DivMod.o [5]
  .text                 ro code  0x0001659a     0x44  xdnorm.o [4]
  .text                 ro code  0x000165e0     0x2e  DblCmpLe.o [4]
  .text                 ro code  0x00016610     0x2e  DblCmpGe.o [4]
  .text                 ro code  0x00016640    0x114  xdscale.o [4]
  .text                 ro code  0x00016754     0x58  DblToI32.o [4]
  .text                 ro code  0x000167ac     0x30  I32ToDbl.o [4]
  .text                 ro code  0x000167dc    0x180  DblSub.o [4]
  .text                 ro code  0x0001695c    0x1a2  DblMul.o [4]
  .text                 ro code  0x00016b00    0x256  DblDiv.o [4]
  .text                 ro code  0x00016d56      0xe  div.o [3]
  .text                 ro code  0x00016d64      0x2  I64DivZer.o [5]
  .text                 ro code  0x00016d68     0xe8  DblAdd.o [4]
  .text                 ro code  0x00016e50    0xb62  PacketHandle.o [1]
  .text                 ro code  0x000179b4    0xa4e  fsl_debug_console.o [1]
  .text                 ro code  0x00018404     0xbe  UART.o [1]
  .text                 ro code  0x000184c4     0x42  strcmp_unaligned.o [5]
  .text                 ro code  0x00018506      0x8  atoi.o [3]
  .text                 ro code  0x00018510    0x218  UserFile.o [1]
  .text                 ro code  0x00018728    0x580  dlmalloc.o [3]
  .text                 ro code  0x00018ca8     0x10  atof.o [4]
  .text                 ro code  0x00018cb8     0x90  DblToFlt.o [4]
  .text                 ro code  0x00018d48     0x4e  FltToDbl.o [4]
  .text                 ro code  0x00018d98    0x3cc  fsl_uart.o [1]
  .text                 ro code  0x00019164     0x20  DblCmpEq.o [4]
  .text                 ro code  0x00019184     0xc0  modf.o [4]
  .rodata               const    0x00019244     0x74  fsl_dspi.o [1]
  .text                 ro code  0x000192b8    0x8c0  pow.o [4]
  .text                 ro code  0x00019b78     0x7a  DblToI64.o [4]
  .text                 ro code  0x00019bf4     0x58  I64ToDbl.o [4]
  .text                 ro code  0x00019c4c    0x588  fsl_clock.o [1]
  .text                 ro code  0x0001a1d4    0x19c  xstoul.o [3]
  .text                 ro code  0x0001a370    0x108  FileAccess.o [1]
  .text                 ro code  0x0001a478     0x34  sprintf.o [3]
  .text                 ro code  0x0001a4ac    0x168  xstod.o [4]
  .text                 ro code  0x0001a614     0x7e  xdint.o [4]
  .text                 ro code  0x0001a694      0xc  errno.o [3]
  .text                 ro code  0x0001a6a0     0xb0  xlog.o [4]
  .text                 ro code  0x0001a750    0x2c6  xexp.o [4]
  .text                 ro code  0x0001aa16    0x11e  xstopfx.o [3]
  .text                 ro code  0x0001ab34    0x1ac  xstoflt.o [3]
  .text                 ro code  0x0001ace0    0x200  xdtento.o [4]
  .text                 ro code  0x0001aee0    0x200  xstoxflt.o [3]
  .text                 ro code  0x0001b0e0      0x2  xtls.o [3]
  .text                 ro code  0x0001b0e2     0x40  xdtest.o [4]
  .text                 ro code  0x0001b122     0x56  xdunscal.o [4]
  .text                 ro code  0x0001b178    0x6b4  main.o [1]
  .text                 ro code  0x0001b82c    0x2c8  pin_mux.o [1]
  .text                 ro code  0x0001baf4     0x68  clock_config.o [1]
  .text                 ro code  0x0001bb5c     0x1c  board.o [1]
  .text                 ro code  0x0001bb78     0x44  PH_Sensor.o [1]
  .text                 ro code  0x0001bbbc    0x11c  fsl_wdog.o [1]
  .text                 ro code  0x0001bcd8    0x386  fsl_ftm.o [1]
  .text                 ro code  0x0001c060     0x20  fsl_sim.o [1]
  .text                 ro code  0x0001c080     0x64  fsl_gpio.o [1]
  .text                 ro code  0x0001c0e4     0x20  fsl_smc.o [1]
  .text                 ro code  0x0001c104    0x344  SensorTask.o [1]
  .text                 ro code  0x0001c448     0x38  EC_Murata.o [1]
  .text                 ro code  0x0001c480    0x2fc  SHT11Soil.o [1]
  .text                 ro code  0x0001c77c    0x31c  ProcessTask.o [1]
  .text                 ro code  0x0001ca98    0x2c4  SDCardTask.o [1]
  .rodata               const    0x0001cd5c    0x1f4  ffunicode.o [1]
  .text                 ro code  0x0001cf50     0xd4  fsl_dspi.o [1]
  .text                 ro code  0x0001d024     0xcc  WhoAmITask.o [1]
  .rodata               const    0x0001d0f0     0xbc  ffunicode.o [1]
  .rodata               const    0x0001d1ac     0x78  fsl_clock.o [1]
  .rodata               const    0x0001d224     0x74  fsl_ftm.o [1]
  .rodata               const    0x0001d298     0x74  fsl_gpio.o [1]
  .rodata               const    0x0001d30c     0x74  fsl_sdhc.o [1]
  .rodata               const    0x0001d380     0x74  fsl_sdhc.o [1]
  .rodata               const    0x0001d3f4     0x74  fsl_sdmmc_common.o [1]
  .rodata               const    0x0001d468     0x74  fsl_uart.o [1]
  .rodata               const    0x0001d4dc     0x74  fsl_wdog.o [1]
  .rodata               const    0x0001d550     0x74  pin_mux.o [1]
  .rodata               const    0x0001d5c4     0x6c  fsl_sd.o [1]
  .text                 ro code  0x0001d630     0x68  fsl_i2c.o [1]
  Initializer bytes     const    0x0001d698     0x64  <for RW-1>
  .rodata               const    0x0001d6fc     0x54  fsl_sdhc.o [1]
  .rodata               const    0x0001d750     0x54  fsl_sdhc.o [1]
  .rodata               const    0x0001d7a4     0x50  fsl_sdhc.o [1]
  .rodata               const    0x0001d7f4     0x4c  fsl_sdhc.o [1]
  .rodata               const    0x0001d840     0x4c  main.o [1]
  .rodata               const    0x0001d88c     0x48  main.o [1]
  .rodata               const    0x0001d8d4     0x44  SensorTask.o [1]
  .rodata               const    0x0001d918     0x40  fsl_uart.o [1]
  .rodata               const    0x0001d958     0x40  fsl_uart.o [1]
  .rodata               const    0x0001d998     0x40  ProcessTask.o [1]
  .rodata               const    0x0001d9d8     0x40  SDCardTask.o [1]
  .rodata               const    0x0001da18     0x40  WhoAmITask.o [1]
  .text                 ro code  0x0001da58     0x40  zero_init3.o [5]
  .rodata               const    0x0001da98     0x3c  PacketHandle.o [1]
  .rodata               const    0x0001dad4     0x3c  SDCardTask.o [1]
  .rodata               const    0x0001db10     0x3c  WhoAmITask.o [1]
  .rodata               const    0x0001db4c     0x38  main.o [1]
  .rodata               const    0x0001db84     0x38  PacketHandle.o [1]
  .rodata               const    0x0001dbbc     0x38  PacketHandle.o [1]
  .rodata               const    0x0001dbf4     0x38  WhoAmITask.o [1]
  .rodata               const    0x0001dc2c     0x34  FileAccess.o [1]
  .rodata               const    0x0001dc60     0x34  PacketHandle.o [1]
  .rodata               const    0x0001dc94     0x34  SensorTask.o [1]
  .text                 ro code  0x0001dcc8     0x34  system_MK64F12.o [1]
  .rodata               const    0x0001dcfc     0x30  fsl_sd.o [1]
  .rodata               const    0x0001dd2c     0x30  PacketHandle.o [1]
  .rodata               const    0x0001dd5c     0x30  PacketHandle.o [1]
  .rodata               const    0x0001dd8c     0x30  PacketHandle.o [1]
  .rodata               const    0x0001ddbc     0x30  PacketHandle.o [1]
  .rodata               const    0x0001ddec     0x30  ProcessTask.o [1]
  .rodata               const    0x0001de1c     0x30  UserFile.o [1]
  .rodata               const    0x0001de4c     0x2c  fsl_sd.o [1]
  .rodata               const    0x0001de78     0x2c  main.o [1]
  .rodata               const    0x0001dea4     0x2c  main.o [1]
  .rodata               const    0x0001ded0     0x2c  main.o [1]
  .rodata               const    0x0001defc     0x2c  main.o [1]
  .rodata               const    0x0001df28     0x2c  PacketHandle.o [1]
  .rodata               const    0x0001df54     0x2c  PacketHandle.o [1]
  .rodata               const    0x0001df80     0x2c  PacketHandle.o [1]
  .rodata               const    0x0001dfac     0x2c  PacketHandle.o [1]
  .rodata               const    0x0001dfd8     0x2c  PacketHandle.o [1]
  .rodata               const    0x0001e004     0x2c  ProcessTask.o [1]
  .rodata               const    0x0001e030     0x2c  SDCardTask.o [1]
  .rodata               const    0x0001e05c     0x2c  SDCardTask.o [1]
  .rodata               const    0x0001e088     0x2c  SensorTask.o [1]
  .text                 ro code  0x0001e0b4     0x2c  copy_init3.o [5]
  .rodata               const    0x0001e0e0     0x28  fsl_sdhc.o [1]
  .rodata               const    0x0001e108     0x28  PacketHandle.o [1]
  .rodata               const    0x0001e130     0x28  PacketHandle.o [1]
  .rodata               const    0x0001e158     0x28  ProcessTask.o [1]
  .rodata               const    0x0001e180     0x28  ProcessTask.o [1]
  .rodata               const    0x0001e1a8     0x28  SDCardTask.o [1]
  .rodata               const    0x0001e1d0     0x28  SDCardTask.o [1]
  .rodata               const    0x0001e1f8     0x28  SDCardTask.o [1]
  .rodata               const    0x0001e220     0x28  SDCardTask.o [1]
  .rodata               const    0x0001e248     0x28  SDCardTask.o [1]
  .rodata               const    0x0001e270     0x28  SDCardTask.o [1]
  .rodata               const    0x0001e298     0x28  SDCardTask.o [1]
  .rodata               const    0x0001e2c0     0x28  SDCardTask.o [1]
  .rodata               const    0x0001e2e8     0x28  SDCardTask.o [1]
  .rodata               const    0x0001e310     0x28  SDCardTask.o [1]
  .rodata               const    0x0001e338     0x28  SensorTask.o [1]
  .rodata               const    0x0001e360     0x28  UserFile.o [1]
  .rodata               const    0x0001e388     0x28  UserFile.o [1]
  .rodata               const    0x0001e3b0     0x28  WhoAmITask.o [1]
  .text                 ro code  0x0001e3d8     0x28  startup_MK64F12.o [1]
  .text                 ro code  0x0001e400     0x28  data_init.o [5]
  .rodata               const    0x0001e428     0x24  FileAccess.o [1]
  .rodata               const    0x0001e44c     0x24  FileAccess.o [1]
  .rodata               const    0x0001e470     0x24  FileAccess.o [1]
  .rodata               const    0x0001e494     0x24  fsl_sdhc.o [1]
  .rodata               const    0x0001e4b8     0x24  PacketHandle.o [1]
  .rodata               const    0x0001e4dc     0x24  PacketHandle.o [1]
  .rodata               const    0x0001e500     0x24  ProcessTask.o [1]
  .rodata               const    0x0001e524     0x24  SDCardTask.o [1]
  .rodata               const    0x0001e548     0x24  SDCardTask.o [1]
  .rodata               const    0x0001e56c     0x24  SensorTask.o [1]
  .text                 ro code  0x0001e590     0x22  fpinit_M.o [4]
  .iar.init_table       const    0x0001e5b4     0x24  - Linker created -
  .rodata               const    0x0001e5d8     0x20  clock_config.o [1]
  .rodata               const    0x0001e5f8     0x20  fsl_sd.o [1]
  .rodata               const    0x0001e618     0x20  fsl_sd.o [1]
  .rodata               const    0x0001e638     0x20  fsl_sd.o [1]
  .rodata               const    0x0001e658     0x20  fsl_sd.o [1]
  .rodata               const    0x0001e678     0x20  fsl_sd.o [1]
  .rodata               const    0x0001e698     0x20  fsl_sd.o [1]
  .rodata               const    0x0001e6b8     0x20  fsl_sd.o [1]
  .rodata               const    0x0001e6d8     0x20  fsl_sd.o [1]
  .rodata               const    0x0001e6f8     0x20  fsl_sd.o [1]
  .rodata               const    0x0001e718     0x20  fsl_sd.o [1]
  .rodata               const    0x0001e738     0x20  fsl_sd.o [1]
  .rodata               const    0x0001e758     0x20  fsl_sd.o [1]
  .rodata               const    0x0001e778     0x20  fsl_sdmmc_common.o [1]
  .rodata               const    0x0001e798     0x20  fsl_sdmmc_common.o [1]
  .rodata               const    0x0001e7b8     0x20  fsl_sdmmc_common.o [1]
  .rodata               const    0x0001e7d8     0x20  fsl_sdmmc_common.o [1]
  .rodata               const    0x0001e7f8     0x20  fsl_sdmmc_common.o [1]
  .rodata               const    0x0001e818     0x20  fsl_sdmmc_common.o [1]
  .rodata               const    0x0001e838     0x20  SDCardTask.o [1]
  .rodata               const    0x0001e858     0x20  UserFile.o [1]
  .rodata               const    0x0001e878     0x1c  fsl_ftm.o [1]
  .rodata               const    0x0001e894     0x1c  fsl_uart.o [1]
  .rodata               const    0x0001e8b0     0x1c  main.o [1]
  .rodata               const    0x0001e8cc     0x1c  SensorTask.o [1]
  .rodata               const    0x0001e8e8     0x1c  SensorTask.o [1]
  .text                 ro code  0x0001e904     0x1a  cmain.o [5]
  .text                 ro code  0x0001e91e      0x4  low_level_init.o [3]
  .text                 ro code  0x0001e922      0x4  exit.o [3]
  .text                 ro code  0x0001e928      0xa  cexit.o [5]
  .rodata               const    0x0001e934     0x18  fsl_uart.o [1]
  .rodata               const    0x0001e94c     0x18  fsl_uart.o [1]
  .rodata               const    0x0001e964     0x18  fsl_uart.o [1]
  .rodata               const    0x0001e97c     0x14  fsl_sd.o [1]
  .rodata               const    0x0001e990     0x14  main.o [1]
  .rodata               const    0x0001e9a4     0x14  main.o [1]
  .rodata               const    0x0001e9b8     0x14  main.o [1]
  .rodata               const    0x0001e9cc     0x14  SDCardTask.o [1]
  .rodata               const    0x0001e9e0     0x10  ff.o [1]
  .rodata               const    0x0001e9f0     0x10  fsl_clock.o [1]
  .rodata               const    0x0001ea00     0x10  fsl_clock.o [1]
  .rodata               const    0x0001ea10     0x10  fsl_dspi.o [1]
  .rodata               const    0x0001ea20     0x10  fsl_dspi.o [1]
  .rodata               const    0x0001ea30     0x10  fsl_dspi.o [1]
  .rodata               const    0x0001ea40     0x10  fsl_ftm.o [1]
  .rodata               const    0x0001ea50     0x10  fsl_ftm.o [1]
  .rodata               const    0x0001ea60     0x10  fsl_sdhc.o [1]
  .rodata               const    0x0001ea70     0x10  fsl_sdhc.o [1]
  .rodata               const    0x0001ea80     0x10  fsl_sdhc.o [1]
  .rodata               const    0x0001ea90     0x10  main.o [1]
  .rodata               const    0x0001eaa0     0x10  PacketHandle.o [1]
  .rodata               const    0x0001eab0     0x10  PH_Sensor.o [1]
  .rodata               const    0x0001eac0     0x10  UserFile.o [1]
  .rodata               const    0x0001ead0      0xc  ff.o [1]
  .rodata               const    0x0001eadc      0xc  ff.o [1]
  .rodata               const    0x0001eae8      0xc  fsl_clock.o [1]
  .rodata               const    0x0001eaf4      0xc  fsl_clock.o [1]
  .rodata               const    0x0001eb00      0xc  fsl_sd.o [1]
  .rodata               const    0x0001eb0c      0xc  fsl_sdhc.o [1]
  .rodata               const    0x0001eb18      0xc  fsl_sdhc.o [1]
  .rodata               const    0x0001eb24      0xc  fsl_sdhc.o [1]
  .rodata               const    0x0001eb30      0xc  fsl_sdhc.o [1]
  .rodata               const    0x0001eb3c      0xc  fsl_sdmmc_common.o [1]
  .rodata               const    0x0001eb48      0xc  PacketHandle.o [1]
  .rodata               const    0x0001eb54      0xc  PacketHandle.o [1]
  .rodata               const    0x0001eb60      0xc  SensorTask.o [1]
  .rodata               const    0x0001eb6c      0xc  UserFile.o [1]
  .rodata               const    0x0001eb78      0xc  UserFile.o [1]
  .rodata               const    0x0001eb84      0xc  UserFile.o [1]
  .text                 ro code  0x0001eb90      0xc  cstartup_M.o [5]
  .rodata               const    0x0001eb9c      0x8  EC_Murata.o [1]
  .rodata               const    0x0001eba4      0x8  ff.o [1]
  .rodata               const    0x0001ebac      0x8  ff.o [1]
  .rodata               const    0x0001ebb4      0x8  fsl_ftm.o [1]
  .rodata               const    0x0001ebbc      0x8  fsl_gpio.o [1]
  .rodata               const    0x0001ebc4      0x8  fsl_sd.o [1]
  .rodata               const    0x0001ebcc      0x8  fsl_sd.o [1]
  .rodata               const    0x0001ebd4      0x8  fsl_sd.o [1]
  .rodata               const    0x0001ebdc      0x8  fsl_sd.o [1]
  .rodata               const    0x0001ebe4      0x8  fsl_sd.o [1]
  .rodata               const    0x0001ebec      0x8  fsl_sd.o [1]
  .rodata               const    0x0001ebf4      0x8  fsl_sd.o [1]
  .rodata               const    0x0001ebfc      0x8  fsl_sd.o [1]
  .rodata               const    0x0001ec04      0x8  fsl_sd.o [1]
  .rodata               const    0x0001ec0c      0x8  fsl_sd.o [1]
  .rodata               const    0x0001ec14      0x8  fsl_sd.o [1]
  .rodata               const    0x0001ec1c      0x8  fsl_sd.o [1]
  .rodata               const    0x0001ec24      0x8  fsl_sd.o [1]
  .rodata               const    0x0001ec2c      0x8  fsl_sd.o [1]
  .rodata               const    0x0001ec34      0x8  fsl_sd.o [1]
  .rodata               const    0x0001ec3c      0x8  fsl_sd.o [1]
  .rodata               const    0x0001ec44      0x8  fsl_sd.o [1]
  .rodata               const    0x0001ec4c      0x8  fsl_sd.o [1]
  .rodata               const    0x0001ec54      0x8  fsl_sd.o [1]
  .rodata               const    0x0001ec5c      0x8  fsl_sdhc.o [1]
  .rodata               const    0x0001ec64      0x8  fsl_sdhc.o [1]
  .rodata               const    0x0001ec6c      0x8  fsl_sdmmc_common.o [1]
  .rodata               const    0x0001ec74      0x8  fsl_sdmmc_common.o [1]
  .rodata               const    0x0001ec7c      0x8  fsl_sdmmc_common.o [1]
  .rodata               const    0x0001ec84      0x8  fsl_sdmmc_common.o [1]
  .rodata               const    0x0001ec8c      0x8  fsl_sdmmc_common.o [1]
  .rodata               const    0x0001ec94      0x8  fsl_sdmmc_common.o [1]
  .rodata               const    0x0001ec9c      0x8  fsl_uart.o [1]
  .rodata               const    0x0001eca4      0x8  fsl_uart.o [1]
  .rodata               const    0x0001ecac      0x8  fsl_wdog.o [1]
  .rodata               const    0x0001ecb4      0x8  PacketHandle.o [1]
  .rodata               const    0x0001ecbc      0x8  PacketHandle.o [1]
  .rodata               const    0x0001ecc4      0x8  PacketHandle.o [1]
  .rodata               const    0x0001eccc      0x8  PacketHandle.o [1]
  .rodata               const    0x0001ecd4      0x8  PacketHandle.o [1]
  .rodata               const    0x0001ecdc      0x8  PacketHandle.o [1]
  .rodata               const    0x0001ece4      0x8  PacketHandle.o [1]
  .rodata               const    0x0001ecec      0x8  PacketHandle.o [1]
  .rodata               const    0x0001ecf4      0x8  PacketHandle.o [1]
  .rodata               const    0x0001ecfc      0x8  PacketHandle.o [1]
  .rodata               const    0x0001ed04      0x8  PacketHandle.o [1]
  .rodata               const    0x0001ed0c      0x8  PacketHandle.o [1]
  .rodata               const    0x0001ed14      0x8  PacketHandle.o [1]
  .rodata               const    0x0001ed1c      0x8  PH_Sensor.o [1]
  .rodata               const    0x0001ed24      0x8  pin_mux.o [1]
  .rodata               const    0x0001ed2c      0x8  SensorTask.o [1]
  .rodata               const    0x0001ed34      0x8  SensorTask.o [1]
  .rodata               const    0x0001ed3c      0x8  SensorTask.o [1]
  .rodata               const    0x0001ed44      0x8  SensorTask.o [1]
  .rodata               const    0x0001ed4c      0x8  tasks.o [1]
  .rodata               const    0x0001ed54      0x8  timers.o [1]
  .rodata               const    0x0001ed5c      0x8  timers.o [1]
  .rodata               const    0x0001ed64      0x8  UserFile.o [1]
  .rodata               const    0x0001ed6c      0x8  UserFile.o [1]
  .rodata               const    0x0001ed74      0x8  UserFile.o [1]
  .text                 ro code  0x0001ed7c      0x8  startup_MK64F12.o [1]
  .text                 ro code  0x0001ed84      0x8  startup_MK64F12.o [1]
  .text                 ro code  0x0001ed8c      0x8  startup_MK64F12.o [1]
  .text                 ro code  0x0001ed94      0x8  startup_MK64F12.o [1]
  .text                 ro code  0x0001ed9c      0x8  startup_MK64F12.o [1]
  .text                 ro code  0x0001eda4      0x8  startup_MK64F12.o [1]
  .text                 ro code  0x0001edac      0x8  startup_MK64F12.o [1]
  .text                 ro code  0x0001edb4      0x8  startup_MK64F12.o [1]
  .text                 ro code  0x0001edbc      0x8  startup_MK64F12.o [1]
  .text                 ro code  0x0001edc4      0x8  startup_MK64F12.o [1]
  .text                 ro code  0x0001edcc      0x8  startup_MK64F12.o [1]
  .text                 ro code  0x0001edd4      0x8  startup_MK64F12.o [1]
  .text                 ro code  0x0001eddc      0x8  startup_MK64F12.o [1]
  .text                 ro code  0x0001ede4      0x8  startup_MK64F12.o [1]
  .text                 ro code  0x0001edec      0x8  startup_MK64F12.o [1]
  .text                 ro code  0x0001edf4      0x8  startup_MK64F12.o [1]
  .text                 ro code  0x0001edfc      0x8  startup_MK64F12.o [1]
  .text                 ro code  0x0001ee04      0x8  startup_MK64F12.o [1]
  .text                 ro code  0x0001ee0c      0x8  startup_MK64F12.o [1]
  .text                 ro code  0x0001ee14      0x8  startup_MK64F12.o [1]
  .text                 ro code  0x0001ee1c      0x8  startup_MK64F12.o [1]
  .text                 ro code  0x0001ee24      0x8  startup_MK64F12.o [1]
  .text                 ro code  0x0001ee2c      0x8  startup_MK64F12.o [1]
  .text                 ro code  0x0001ee34      0x8  startup_MK64F12.o [1]
  .text                 ro code  0x0001ee3c      0x8  startup_MK64F12.o [1]
  .text                 ro code  0x0001ee44      0x8  startup_MK64F12.o [1]
  .text                 ro code  0x0001ee4c      0x8  startup_MK64F12.o [1]
  .text                 ro code  0x0001ee54      0x8  startup_MK64F12.o [1]
  .text                 ro code  0x0001ee5c      0x8  startup_MK64F12.o [1]
  .text                 ro code  0x0001ee64      0x8  startup_MK64F12.o [1]
  .text                 ro code  0x0001ee6c      0x8  startup_MK64F12.o [1]
  .text                 ro code  0x0001ee74      0x8  startup_MK64F12.o [1]
  .text                 ro code  0x0001ee7c      0x8  startup_MK64F12.o [1]
  .text                 ro code  0x0001ee84      0x8  startup_MK64F12.o [1]
  .text                 ro code  0x0001ee8c      0x8  startup_MK64F12.o [1]
  .text                 ro code  0x0001ee94      0x8  startup_MK64F12.o [1]
  .text                 ro code  0x0001ee9c      0x8  startup_MK64F12.o [1]
  .text                 ro code  0x0001eea4      0x8  startup_MK64F12.o [1]
  .text                 ro code  0x0001eeac      0x8  startup_MK64F12.o [1]
  .text                 ro code  0x0001eeb4      0x8  startup_MK64F12.o [1]
  .text                 ro code  0x0001eebc      0x8  startup_MK64F12.o [1]
  .text                 ro code  0x0001eec4      0x8  startup_MK64F12.o [1]
  .text                 ro code  0x0001eecc      0x8  startup_MK64F12.o [1]
  .text                 ro code  0x0001eed4      0x8  startup_MK64F12.o [1]
  .text                 ro code  0x0001eedc      0x8  startup_MK64F12.o [1]
  .text                 ro code  0x0001eee4      0x8  startup_MK64F12.o [1]
  .rodata               const    0x0001eeec      0x4  fsl_sdhc.o [1]
  .rodata               const    0x0001eef0      0x4  fsl_sdhc.o [1]
  .rodata               const    0x0001eef4      0x4  heap_4.o [1]
  .rodata               const    0x0001eef8      0x4  pin_mux.o [1]
  .rodata               const    0x0001eefc      0x4  pin_mux.o [1]
  .rodata               const    0x0001ef00      0x4  pin_mux.o [1]
  .rodata               const    0x0001ef04      0x4  pin_mux.o [1]
  .rodata               const    0x0001ef08      0x4  pin_mux.o [1]
  .rodata               const    0x0001ef0c      0x4  pin_mux.o [1]
  .rodata               const    0x0001ef10      0x4  pin_mux.o [1]
  .rodata               const    0x0001ef14      0x4  pin_mux.o [1]
  .rodata               const    0x0001ef18      0x4  pin_mux.o [1]
  .rodata               const    0x0001ef1c      0x4  port.o [1]
  .rodata               const    0x0001ef20      0x4  SDCardTask.o [1]
  .rodata               const    0x0001ef24      0x4  SHT11Soil.o [1]
  .rodata               const    0x0001ef28      0x4  SHT11Soil.o [1]
  .text                 ro code  0x0001ef2c      0x4  startup_MK64F12.o [1]
  .rodata               const    0x0001ef30      0x0  zero_init3.o [5]
  .rodata               const    0x0001ef30      0x0  copy_init3.o [5]
                               - 0x0001ef30  0x1eb20

"P3-P4", part 1 of 2:                           0x64
  RW                             0x1fff0000     0x64  <Block>
    RW-1                         0x1fff0000     0x61  <Init block>
      .data             inited   0x1fff0000      0x4  fsl_clock.o [1]
      .data             inited   0x1fff0004      0x4  fsl_clock.o [1]
      .data             inited   0x1fff0008     0x24  main.o [1]
      .data             inited   0x1fff002c      0xc  main.o [1]
      .data             inited   0x1fff0038     0x18  main.o [1]
      .data             inited   0x1fff0050      0x4  main.o [1]
      .data             inited   0x1fff0054      0x4  port.o [1]
      .data             inited   0x1fff0058      0x4  system_MK64F12.o [1]
      __DLIB_PERTHREAD  inited   0x1fff005c      0x4  errno.o [3]
      .data             inited   0x1fff0060      0x1  fsl_sdmmc_host.o [1]
                               - 0x1fff0064     0x64

"P3-P4", part 2 of 2:                         0xa0b0
  ZI                             0x1fff0064   0xa0b0  <Block>
    .bss                zero     0x1fff0064      0xc  ff.o [1]
    .bss                zero     0x1fff0070    0x200  ff.o [1]
    .bss                zero     0x1fff0270      0x4  fsl_clock.o [1]
    .bss                zero     0x1fff0274      0x4  fsl_clock.o [1]
    .bss                zero     0x1fff0278     0x10  fsl_debug_console.o [1]
    .bss                zero     0x1fff0288      0xc  fsl_dspi.o [1]
    .bss                zero     0x1fff0294      0x4  fsl_dspi.o [1]
    .bss                zero     0x1fff0298      0x4  fsl_dspi.o [1]
    .bss                zero     0x1fff029c      0xc  fsl_i2c.o [1]
    .bss                zero     0x1fff02a8      0x4  fsl_i2c.o [1]
    .bss                zero     0x1fff02ac      0x4  fsl_i2c.o [1]
    .bss                zero     0x1fff02b0     0xbc  fsl_sd_disk.o [1]
    .bss                zero     0x1fff036c      0x4  fsl_sdhc.o [1]
    .bss                zero     0x1fff0370      0x4  fsl_sdhc.o [1]
    .bss                zero     0x1fff0374    0x200  fsl_sdmmc_common.o [1]
    .bss                zero     0x1fff0574      0x4  fsl_sdmmc_event.o [1]
    .bss                zero     0x1fff0578      0x4  fsl_sdmmc_event.o [1]
    .bss                zero     0x1fff057c     0x28  fsl_sdmmc_host.o [1]
    .bss                zero     0x1fff05a4     0x20  fsl_sdmmc_host.o [1]
    .bss                zero     0x1fff05c4     0x18  fsl_uart.o [1]
    .bss                zero     0x1fff05dc      0x4  fsl_uart.o [1]
    .bss                zero     0x1fff05e0   0x8c00  heap_4.o [1]
    .bss                zero     0x1fff91e0      0x8  heap_4.o [1]
    .bss                zero     0x1fff91e8      0x4  heap_4.o [1]
    .bss                zero     0x1fff91ec      0x4  heap_4.o [1]
    .bss                zero     0x1fff91f0      0x4  heap_4.o [1]
    .bss                zero     0x1fff91f4      0x4  heap_4.o [1]
    .bss                zero     0x1fff91f8    0x204  main.o [1]
    .bss                zero     0x1fff93fc    0x204  main.o [1]
    .bss                zero     0x1fff9600    0x204  main.o [1]
    .bss                zero     0x1fff9804     0x14  main.o [1]
    .bss                zero     0x1fff9818      0x4  port.o [1]
    .bss                zero     0x1fff981c      0x4  ProcessTask.o [1]
    .bss                zero     0x1fff9820     0x40  queue.o [1]
    .bss                zero     0x1fff9860    0x238  SDCardTask.o [1]
    .bss                zero     0x1fff9a98    0x310  SensorTask.o [1]
    .bss                zero     0x1fff9da8     0x10  SensorTask.o [1]
    .bss                zero     0x1fff9db8     0x10  SensorTask.o [1]
    .bss                zero     0x1fff9dc8      0x4  SensorTask.o [1]
    .bss                zero     0x1fff9dcc      0x4  tasks.o [1]
    .bss                zero     0x1fff9dd0     0x64  tasks.o [1]
    .bss                zero     0x1fff9e34     0x14  tasks.o [1]
    .bss                zero     0x1fff9e48     0x14  tasks.o [1]
    .bss                zero     0x1fff9e5c      0x4  tasks.o [1]
    .bss                zero     0x1fff9e60      0x4  tasks.o [1]
    .bss                zero     0x1fff9e64     0x14  tasks.o [1]
    .bss                zero     0x1fff9e78     0x14  tasks.o [1]
    .bss                zero     0x1fff9e8c      0x4  tasks.o [1]
    .bss                zero     0x1fff9e90     0x14  tasks.o [1]
    .bss                zero     0x1fff9ea4      0x4  tasks.o [1]
    .bss                zero     0x1fff9ea8      0x4  tasks.o [1]
    .bss                zero     0x1fff9eac      0x4  tasks.o [1]
    .bss                zero     0x1fff9eb0      0x4  tasks.o [1]
    .bss                zero     0x1fff9eb4      0x4  tasks.o [1]
    .bss                zero     0x1fff9eb8      0x4  tasks.o [1]
    .bss                zero     0x1fff9ebc      0x4  tasks.o [1]
    .bss                zero     0x1fff9ec0      0x4  tasks.o [1]
    .bss                zero     0x1fff9ec4      0x4  tasks.o [1]
    .bss                zero     0x1fff9ec8      0x4  tasks.o [1]
    .bss                zero     0x1fff9ecc      0x4  tasks.o [1]
    .bss                zero     0x1fff9ed0     0x14  timers.o [1]
    .bss                zero     0x1fff9ee4     0x14  timers.o [1]
    .bss                zero     0x1fff9ef8      0x4  timers.o [1]
    .bss                zero     0x1fff9efc      0x4  timers.o [1]
    .bss                zero     0x1fff9f00      0x4  timers.o [1]
    .bss                zero     0x1fff9f04      0x4  timers.o [1]
    .bss                zero     0x1fff9f08      0x4  timers.o [1]
    .bss                zero     0x1fff9f0c     0x18  dlmalloc.o [3]
    .bss                zero     0x1fff9f24    0x1d8  dlmalloc.o [3]
    .bss                zero     0x1fffa0fc      0x2  ff.o [1]
    .bss                zero     0x1fffa0fe      0x2  main.o [1]
    .bss                zero     0x1fffa100      0x2  main.o [1]
    .bss                zero     0x1fffa102      0x2  main.o [1]
    .bss                zero     0x1fffa104      0x2  main.o [1]
    .bss                zero     0x1fffa106      0x2  main.o [1]
    .bss                zero     0x1fffa108      0x2  main.o [1]
    .bss                zero     0x1fffa10a      0x2  main.o [1]
    .bss                zero     0x1fffa10c      0x1  ff.o [1]
    .bss                zero     0x1fffa10d      0x1  fsl_sdmmc_host.o [1]
    .bss                zero     0x1fffa10e      0x1  main.o [1]
    .bss                zero     0x1fffa10f      0x1  port.o [1]
    .bss                zero     0x1fffa110      0x1  SDCardTask.o [1]
    .bss                zero     0x1fffa111      0x1  SDCardTask.o [1]
    .bss                zero     0x1fffa112      0x1  SDCardTask.o [1]
                               - 0x1fffa114   0xa0b0

"P6":                                          0x400
  CSTACK                         0x2002fc00    0x400  <Block>
    CSTACK              uninit   0x2002fc00    0x400  <Block tail>
                               - 0x20030000    0x400


*******************************************************************************
*** INIT TABLE
***

          Address     Size
          -------     ----
Zero (__iar_zero_init3)
    1 destination range, total size 0xa0af:
          0x1fff0064  0xa0af

Copy (__iar_copy_init3)
    1 source range, total size 0x64 (103% of destination):
          0x0001d698    0x64
    1 destination range, total size 0x61:
          0x1fff0000    0x61



*******************************************************************************
*** MODULE SUMMARY
***

    Module                  ro code  ro data  rw data
    ------                  -------  -------  -------
D:\03.OneDrive\OneDrive\outsource\smartfarm_hosco\fw_smf_v1.1\SF_FW_NODE\Release\Obj: [1]
    EC_Murata.o                  56        8
    FileAccess.o                264      160
    PH_Sensor.o                  68       24
    PacketHandle.o            2 914      932
    ProcessTask.o               796      272        4
    SDCardTask.o                708      740      571
    SHT11Soil.o                 764        8
    SensorTask.o                836      340      820
    UART.o                      190
    UserFile.o                  536      236
    WhoAmITask.o                204      220
    board.o                      28
    clock_config.o              104       32
    diskio.o                    116
    ff.o                      8 138       56      527
    ffunicode.o                 392   59 808
    fsl_clock.o               1 416      184       16
    fsl_debug_console.o       2 638                16
    fsl_dspi.o                  212      164       20
    fsl_ftm.o                   902      184
    fsl_gpio.o                  100      124
    fsl_i2c.o                   104                20
    fsl_sd.o                  5 486      768
    fsl_sd_disk.o               248               188
    fsl_sdhc.o                2 948      753        8
    fsl_sdmmc_common.o          800      368      512
    fsl_sdmmc_event.o           262                 8
    fsl_sdmmc_host.o            866        1       74
    fsl_sim.o                    32
    fsl_smc.o                    32
    fsl_tickless_systick.o       48
    fsl_uart.o                  972      360       28
    fsl_wdog.o                  284      124
    heap_4.o                    608        4   35 864
    list.o                      152
    main.o                    1 716      560    1 659
    pin_mux.o                   712      160
    port.o                      560        8        9
    portasm.o                   168
    queue.o                   2 046                64
    startup_MK64F12.o         1 464
    system_MK64F12.o             52        4        4
    tasks.o                   3 116        8      260
    timers.o                  1 056       16       60
    -------------------------------------------------
    Total:                   45 114   66 626   40 732

command line: [2]
    -------------------------------------------------
    Total:

dl7M_tln.a: [3]
    abort.o                       6
    atoi.o                        8
    div.o                        14
    dlmalloc.o                1 408               496
    errno.o                      12        4        4
    exit.o                        4
    low_level_init.o              4
    sprintf.o                    52
    xprintffull.o             3 538
    xsprout.o                    10
    xstoflt.o                   428
    xstopfx.o                   286
    xstoul.o                    412
    xstoxflt.o                  512
    xtls.o                        2
    -------------------------------------------------
    Total:                    6 696        4      500

m7M_tls.a: [4]
    DblAdd.o                    232
    DblCmpEq.o                   32
    DblCmpGe.o                   46
    DblCmpLe.o                   46
    DblDiv.o                    598
    DblMul.o                    418
    DblSub.o                    384
    DblToFlt.o                  144
    DblToI32.o                   88
    DblToI64.o                  122
    FltToDbl.o                   78
    I32ToDbl.o                   48
    I64ToDbl.o                   88
    atof.o                       16
    fpinit_M.o                   34
    modf.o                      192
    pow.o                     2 240
    xdint.o                     126
    xdnorm.o                     68
    xdscale.o                   276
    xdtento.o                   512
    xdtest.o                     64
    xdunscal.o                   86
    xexp.o                      710
    xlog.o                      176
    xstod.o                     360
    -------------------------------------------------
    Total:                    7 184

rt7M_tl.a: [5]
    ABImemclr4.o                  6
    ABImemcpy_unaligned.o       118
    ABImemset.o                 102
    ABImemset48.o                50
    I64DivMod.o                 306
    I64DivZer.o                   2
    cexit.o                      10
    cmain.o                      26
    copy_init3.o                 44
    cstartup_M.o                 12
    data_init.o                  40
    memchr.o                     88
    strchr.o                     22
    strcmp_unaligned.o           66
    strlen.o                     54
    zero_init3.o                 64
    -------------------------------------------------
    Total:                    1 010

shb_l.a: [6]
    ABIassert.o                  36
    exit.o                       20
    -------------------------------------------------
    Total:                       56

    Gaps                         35        4
    Linker created                        39    1 024
-----------------------------------------------------
    Grand Total:             60 095   66 673   42 256


*******************************************************************************
*** ENTRY LIST
***

Entry                      Address    Size  Type      Object
-----                      -------    ----  ----      ------
.iar.init_table$$Base   0x0001e5b4           --   Gb  - Linker created -
.iar.init_table$$Limit  0x0001e5d8           --   Gb  - Linker created -
?main                   0x0001e905          Code  Gb  cmain.o [5]
BOARD_BootClockVLPR     0x0001bb07    0x40  Code  Gb  clock_config.o [1]
BOARD_InitDebugConsole  0x0001bb5d    0x1c  Code  Gb  board.o [1]
BOARD_InitPins          0x0001b883   0x20e  Code  Gb  pin_mux.o [1]
CLOCK_BootToBlpiMode    0x0001a175    0x40  Code  Gb  fsl_clock.o [1]
CLOCK_DisableClock      0x000127a9    0x1a  Code  Lc  fsl_sdhc.o [1]
CLOCK_EnableClock       0x0001bcd9    0x18  Code  Lc  fsl_ftm.o [1]
CLOCK_EnableClock       0x00012791    0x18  Code  Lc  fsl_sdhc.o [1]
CLOCK_EnableClock       0x00018d99    0x18  Code  Lc  fsl_uart.o [1]
CLOCK_EnableClock       0x0001b82d    0x18  Code  Lc  pin_mux.o [1]
CLOCK_GetCoreSysClkFreq
                        0x00019e69    0x16  Code  Gb  fsl_clock.o [1]
CLOCK_GetEr32kClkFreq   0x00019dd7    0x60  Code  Gb  fsl_clock.o [1]
CLOCK_GetFixedFreqClkFreq
                        0x00019fff    0x1e  Code  Gb  fsl_clock.o [1]
CLOCK_GetFllExtRefClkFreq
                        0x00019ced    0x66  Code  Lc  fsl_clock.o [1]
CLOCK_GetFllFreq        0x00019f9f    0x4a  Code  Gb  fsl_clock.o [1]
CLOCK_GetFllFreq::fllFactorTable
                        0x0001ea00    0x10  Data  Lc  fsl_clock.o [1]
CLOCK_GetFllRefClkFreq  0x00019d79    0x20  Code  Lc  fsl_clock.o [1]
CLOCK_GetFreq           0x00019e7f    0xce  Code  Gb  fsl_clock.o [1]
CLOCK_GetInternalRefClkFreq
                        0x00019fe9    0x16  Code  Gb  fsl_clock.o [1]
CLOCK_GetInternalRefClkSelectFreq
                        0x00019d53    0x26  Code  Lc  fsl_clock.o [1]
CLOCK_GetMcgExtClkFreq  0x00019c81    0x6c  Code  Lc  fsl_clock.o [1]
CLOCK_GetOsc0ErClkFreq  0x00019da1    0x36  Code  Gb  fsl_clock.o [1]
CLOCK_GetOutClkFreq     0x00019f67    0x38  Code  Gb  fsl_clock.o [1]
CLOCK_GetPll0Freq       0x0001a01d    0x54  Code  Gb  fsl_clock.o [1]
CLOCK_GetPll0RefFreq    0x00019d99     0x8  Code  Lc  fsl_clock.o [1]
CLOCK_GetPllFllSelClkFreq
                        0x00019e37    0x32  Code  Gb  fsl_clock.o [1]
CLOCK_SetEr32kClock     0x00019c4d    0x1a  Code  Lc  fsl_clock.o [1]
CLOCK_SetInternalRefClkConfig
                        0x0001a071    0xba  Code  Gb  fsl_clock.o [1]
CLOCK_SetPllFllSelClock
                        0x00019c67    0x1a  Code  Lc  fsl_clock.o [1]
CLOCK_SetSimConfig      0x00019f4d    0x1a  Code  Gb  fsl_clock.o [1]
CLOCK_SetSimSafeDivs    0x0001baf5     0xa  Code  Lc  clock_config.o [1]
CSTACK$$Base            0x2002fc00           --   Gb  - Linker created -
CSTACK$$Limit           0x20030000           --   Gb  - Linker created -
CurrVol                 0x1fffa10c     0x1  Data  Lc  ff.o [1]
DSPI_CommonIRQHandler   0x0001cf59    0x28  Code  Lc  fsl_dspi.o [1]
DSPI_IsMaster           0x0001cf51     0x8  Code  Lc  fsl_dspi.o [1]
DbcTbl                  0x0001eadc     0xc  Data  Lc  ff.o [1]
DbgConsole_ConvertFloatRadixNumToString
                        0x00017bfd   0x1b6  Code  Lc  fsl_debug_console.o [1]
DbgConsole_ConvertRadixNumToString
                        0x00017ad1   0x12a  Code  Lc  fsl_debug_console.o [1]
DbgConsole_Init         0x000179e9    0x74  Code  Gb  fsl_debug_console.o [1]
DbgConsole_Printf       0x00017a5d    0x24  Code  Gb  fsl_debug_console.o [1]
DbgConsole_PrintfFormattedData
                        0x00017dd9   0x62a  Code  Lc  fsl_debug_console.o [1]
DbgConsole_PrintfPaddingCharacter
                        0x00017aa9    0x28  Code  Lc  fsl_debug_console.o [1]
DbgConsole_Putchar      0x00017a81    0x28  Code  Gb  fsl_debug_console.o [1]
DisableGlobalIRQ        0x0001bbbd     0x8  Code  Lc  fsl_wdog.o [1]
DisableIRQ              0x000127db    0x18  Code  Lc  fsl_sdhc.o [1]
EC_Sensor_vRead         0x0001c461    0x18  Code  Gb  EC_Murata.o [1]
EC_Sensor_vWriteCmd     0x0001c449    0x18  Code  Gb  EC_Murata.o [1]
EnableGlobalIRQ         0x0001bbc5     0x6  Code  Lc  fsl_wdog.o [1]
EnableIRQ               0x000127c3    0x18  Code  Lc  fsl_sdhc.o [1]
EnableIRQ               0x00013321    0x18  Code  Lc  fsl_sdmmc_host.o [1]
EnableIRQ               0x0001b18f    0x18  Code  Lc  main.o [1]
EnableIRQ               0x00018449    0x18  Code  Lc  UART.o [1]
Enum_CARD_EVENT         0x1fffa110     0x1  Data  Gb  SDCardTask.o [1]
FTM0_IRQHandler         0x0001b527    0x92  Code  Gb  main.o [1]
FTM_ClearStatusFlags    0x0001c02d    0x32  Code  Gb  fsl_ftm.o [1]
FTM_EnableInterrupts    0x0001bfc3    0x46  Code  Gb  fsl_ftm.o [1]
FTM_GetDefaultConfig    0x0001bf75    0x4e  Code  Gb  fsl_ftm.o [1]
FTM_GetInstance         0x0001bcf1    0x34  Code  Lc  fsl_ftm.o [1]
FTM_Init                0x0001becf    0xa6  Code  Gb  fsl_ftm.o [1]
FTM_SetPwmSync          0x0001bd25    0xa0  Code  Lc  fsl_ftm.o [1]
FTM_SetReloadPoints     0x0001bdc5   0x10a  Code  Lc  fsl_ftm.o [1]
FTM_SetTimerPeriod      0x0001b1ab     0x4  Code  Lc  main.o [1]
FTM_StartTimer          0x0001b1af    0x14  Code  Lc  main.o [1]
FatFs                   0x1fff0064     0xc  Data  Lc  ff.o [1]
Fsid                    0x1fffa0fc     0x2  Data  Lc  ff.o [1]
GPIO_PinInit            0x0001c09b    0x42  Code  Gb  fsl_gpio.o [1]
GPIO_ReadPinInput       0x00013339     0xa  Code  Lc  fsl_sdmmc_host.o [1]
GPIO_ReadPinInput       0x0001c49b     0xa  Code  Lc  SHT11Soil.o [1]
GPIO_TogglePinsOutput   0x0001c7b9     0x4  Code  Lc  ProcessTask.o [1]
GPIO_WritePinOutput     0x0001c081    0x1a  Code  Lc  fsl_gpio.o [1]
GPIO_WritePinOutput     0x0001b1dd    0x1a  Code  Lc  main.o [1]
GPIO_WritePinOutput     0x0001c79f    0x1a  Code  Lc  ProcessTask.o [1]
GPIO_WritePinOutput     0x0001c481    0x1a  Code  Lc  SHT11Soil.o [1]
GPIO_WritePinOutput     0x0001d025    0x1a  Code  Lc  WhoAmITask.o [1]
I2C0_DriverIRQHandler   0x0001d657     0xe  Code  Gb  fsl_i2c.o [1]
I2C1_DriverIRQHandler   0x0001d665     0xe  Code  Gb  fsl_i2c.o [1]
I2C2_DriverIRQHandler   0x0001d673     0xe  Code  Gb  fsl_i2c.o [1]
I2C_TransferCommonIRQHandler
                        0x0001d631    0x26  Code  Lc  fsl_i2c.o [1]
LPTMR0_IRQHandler       0x0001ca27    0x14  Code  Gb  ProcessTask.o [1]
LPTMR_ClearStatusFlags  0x0001c7bd     0x8  Code  Lc  ProcessTask.o [1]
LfnBuf                  0x1fff0070   0x200  Data  Lc  ff.o [1]
LfnOfs                  0x0001e9e0    0x10  Data  Lc  ff.o [1]
LoadInt                 0x00015b93    0x6e  Code  Lc  xprintffull.o [3]
NVIC_DisableIRQ         0x0001277b    0x16  Code  Lc  fsl_sdhc.o [1]
NVIC_EnableIRQ          0x00012765    0x16  Code  Lc  fsl_sdhc.o [1]
NVIC_EnableIRQ          0x000132e9    0x16  Code  Lc  fsl_sdmmc_host.o [1]
NVIC_EnableIRQ          0x0001b179    0x16  Code  Lc  main.o [1]
NVIC_EnableIRQ          0x00018405    0x14  Code  Lc  UART.o [1]
NVIC_SetPriority        0x000132ff    0x22  Code  Lc  fsl_sdmmc_host.o [1]
NVIC_SetPriority        0x0001ca99    0x22  Code  Lc  SDCardTask.o [1]
NVIC_SetPriority        0x00018419    0x22  Code  Lc  UART.o [1]
NVIC_SystemReset        0x0001c77d    0x22  Code  Lc  ProcessTask.o [1]
PH_Sensor_vInit         0x0001bb79    0x10  Code  Gb  PH_Sensor.o [1]
PH_Sensor_vRead         0x0001bba1     0xa  Code  Gb  PH_Sensor.o [1]
PH_Sensor_vSendCMD      0x0001bb89    0x18  Code  Gb  PH_Sensor.o [1]
PORTE_IRQHandler        0x00013543    0x26  Code  Gb  fsl_sdmmc_host.o [1]
PORT_ClearPinsInterruptFlags
                        0x00013399     0x6  Code  Lc  fsl_sdmmc_host.o [1]
PORT_GetPinsInterruptFlags
                        0x00013393     0x6  Code  Lc  fsl_sdmmc_host.o [1]
PORT_SetPinConfig       0x0001b845    0x26  Code  Lc  pin_mux.o [1]
PORT_SetPinInterruptConfig
                        0x0001337b    0x18  Code  Lc  fsl_sdmmc_host.o [1]
PORT_SetPinMux          0x0001b86b    0x18  Code  Lc  pin_mux.o [1]
PendSV_Handler          0x00015545          Code  Gb  portasm.o [1]
RW$$Base                0x1fff0000           --   Gb  - Linker created -
RW$$Limit               0x1fff0064           --   Gb  - Linker created -
Region$$Table$$Base     0x0001e5b4           --   Gb  - Linker created -
Region$$Table$$Limit    0x0001e5d8           --   Gb  - Linker created -
SDCARD_DetectCallBack   0x0001cc49     0xc  Code  Lc  SDCardTask.o [1]
SDHC_CardDetectByData3  0x00013361    0x1a  Code  Lc  fsl_sdmmc_host.o [1]
SDHC_ClearInterruptStatusFlags
                        0x0001281b     0x4  Code  Lc  fsl_sdhc.o [1]
SDHC_Deinit             0x00012d3f    0x14  Code  Gb  fsl_sdhc.o [1]
SDHC_DisableInterruptSignal
                        0x0001280d     0xa  Code  Lc  fsl_sdhc.o [1]
SDHC_DisableInterruptSignal
                        0x00013353     0xa  Code  Lc  fsl_sdmmc_host.o [1]
SDHC_DisableInterruptStatus
                        0x000127fb     0xa  Code  Lc  fsl_sdhc.o [1]
SDHC_DriverIRQHandler   0x00013261    0x2c  Code  Gb  fsl_sdhc.o [1]
SDHC_EnableInterruptSignal
                        0x00012805     0x8  Code  Lc  fsl_sdhc.o [1]
SDHC_EnableInterruptSignal
                        0x0001334b     0x8  Code  Lc  fsl_sdmmc_host.o [1]
SDHC_EnableInterruptStatus
                        0x000127f3     0x8  Code  Lc  fsl_sdhc.o [1]
SDHC_EnableInterruptStatus
                        0x00013343     0x8  Code  Lc  fsl_sdmmc_host.o [1]
SDHC_EnableSdClock      0x000123c9    0x1a  Code  Lc  fsl_sdmmc_common.o [1]
SDHC_GetCapability      0x00012d87    0x54  Code  Gb  fsl_sdhc.o [1]
SDHC_GetCommandResponse
                        0x00012823    0x26  Code  Lc  fsl_sdhc.o [1]
SDHC_GetInstance        0x00012851    0x3a  Code  Lc  fsl_sdhc.o [1]
SDHC_GetInterruptStatusFlags
                        0x00012817     0x4  Code  Lc  fsl_sdhc.o [1]
SDHC_GetPresentStatusFlags
                        0x00010dc9     0x4  Code  Lc  fsl_sd.o [1]
SDHC_GetPresentStatusFlags
                        0x0001281f     0x4  Code  Lc  fsl_sdhc.o [1]
SDHC_GetPresentStatusFlags
                        0x000123c5     0x4  Code  Lc  fsl_sdmmc_common.o [1]
SDHC_GetPresentStatusFlags
                        0x0001335d     0x4  Code  Lc  fsl_sdmmc_host.o [1]
SDHC_Init               0x00012c57    0xe8  Code  Gb  fsl_sdhc.o [1]
SDHC_ReadData           0x0001284d     0x4  Code  Lc  fsl_sdhc.o [1]
SDHC_ReadDataPort       0x00012a5b    0x66  Code  Lc  fsl_sdhc.o [1]
SDHC_ReceiveCommandResponse
                        0x000129bf    0x9c  Code  Lc  fsl_sdhc.o [1]
SDHC_Reset              0x00012d53    0x34  Code  Gb  fsl_sdhc.o [1]
SDHC_SetAdmaTableConfig
                        0x00012f45   0x104  Code  Gb  fsl_sdhc.o [1]
SDHC_SetCardActive      0x00012e91    0x2e  Code  Gb  fsl_sdhc.o [1]
SDHC_SetDataBusWidth    0x00010dcd    0x14  Code  Lc  fsl_sd.o [1]
SDHC_SetSdClock         0x00012ddb    0xb6  Code  Gb  fsl_sdhc.o [1]
SDHC_SetTransferConfig  0x00012ebf    0x86  Code  Gb  fsl_sdhc.o [1]
SDHC_SetTransferInterrupt
                        0x0001288b    0x58  Code  Lc  fsl_sdhc.o [1]
SDHC_StartTransfer      0x000128e3    0xdc  Code  Lc  fsl_sdhc.o [1]
SDHC_TransferCreateHandle
                        0x0001304d    0x7e  Code  Gb  fsl_sdhc.o [1]
SDHC_TransferHandleCardDetect
                        0x00012b27    0x24  Code  Lc  fsl_sdhc.o [1]
SDHC_TransferHandleCommand
                        0x00012b4b    0x66  Code  Lc  fsl_sdhc.o [1]
SDHC_TransferHandleData
                        0x00012bb1    0x82  Code  Lc  fsl_sdhc.o [1]
SDHC_TransferHandleIRQ  0x000131e1    0x80  Code  Gb  fsl_sdhc.o [1]
SDHC_TransferHandleSdioBlockGap
                        0x00012c45    0x12  Code  Lc  fsl_sdhc.o [1]
SDHC_TransferHandleSdioInterrupt
                        0x00012c33    0x12  Code  Lc  fsl_sdhc.o [1]
SDHC_TransferNonBlocking
                        0x000130e9    0xee  Code  Gb  fsl_sdhc.o [1]
SDHC_WriteData          0x00012849     0x4  Code  Lc  fsl_sdhc.o [1]
SDHC_WriteDataPort      0x00012ac1    0x66  Code  Lc  fsl_sdhc.o [1]
SDMMCEVENT_Create       0x0001369d    0x2c  Code  Gb  fsl_sdmmc_event.o [1]
SDMMCEVENT_Delay        0x00013775    0x16  Code  Gb  fsl_sdmmc_event.o [1]
SDMMCEVENT_Delete       0x00013761    0x14  Code  Gb  fsl_sdmmc_event.o [1]
SDMMCEVENT_GetInstance  0x00013685    0x18  Code  Lc  fsl_sdmmc_event.o [1]
SDMMCEVENT_Notify       0x00013711    0x42  Code  Gb  fsl_sdmmc_event.o [1]
SDMMCEVENT_Wait         0x000136c9    0x48  Code  Gb  fsl_sdmmc_event.o [1]
SDMMCHOST_CardDetectDeinit
                        0x0001352b    0x10  Code  Lc  fsl_sdmmc_host.o [1]
SDMMCHOST_CardDetectInit
                        0x000134c3    0x68  Code  Lc  fsl_sdmmc_host.o [1]
SDMMCHOST_Deinit        0x00013637    0x14  Code  Gb  fsl_sdmmc_host.o [1]
SDMMCHOST_Delay         0x0001353b     0x8  Code  Gb  fsl_sdmmc_host.o [1]
SDMMCHOST_DetectCardByGpio
                        0x0001339f    0x44  Code  Lc  fsl_sdmmc_host.o [1]
SDMMCHOST_DetectCardInsertByHost
                        0x000133e3    0x2e  Code  Lc  fsl_sdmmc_host.o [1]
SDMMCHOST_DetectCardRemoveByHost
                        0x00013411    0x1e  Code  Lc  fsl_sdmmc_host.o [1]
SDMMCHOST_ErrorRecovery
                        0x00013493    0x30  Code  Gb  fsl_sdmmc_host.o [1]
SDMMCHOST_Init          0x0001359b    0x66  Code  Gb  fsl_sdmmc_host.o [1]
SDMMCHOST_PowerOffCard  0x00013569    0x14  Code  Gb  fsl_sdmmc_host.o [1]
SDMMCHOST_PowerOnCard   0x0001357d    0x1e  Code  Gb  fsl_sdmmc_host.o [1]
SDMMCHOST_Reset         0x00013635     0x2  Code  Gb  fsl_sdmmc_host.o [1]
SDMMCHOST_TransferCompleteCallback
                        0x0001342f    0x1c  Code  Lc  fsl_sdmmc_host.o [1]
SDMMCHOST_TransferFunction
                        0x0001344b    0x48  Code  Lc  fsl_sdmmc_host.o [1]
SDMMC_ExecuteTuning     0x00012633    0x74  Code  Gb  fsl_sdmmc_common.o [1]
SDMMC_GoIdle            0x000124db    0x54  Code  Gb  fsl_sdmmc_common.o [1]
SDMMC_SelectCard        0x000123e3    0x82  Code  Gb  fsl_sdmmc_common.o [1]
SDMMC_SendApplicationCommand
                        0x00012465    0x76  Code  Gb  fsl_sdmmc_common.o [1]
SDMMC_SetBlockSize      0x0001252f    0x66  Code  Gb  fsl_sdmmc_common.o [1]
SDMMC_SwitchVoltage     0x00012595    0x9e  Code  Gb  fsl_sdmmc_common.o [1]
SD_AllSendCid           0x000118cb    0x78  Code  Lc  fsl_sd.o [1]
SD_ApplicationSendOperationCondition
                        0x00011943    0xaa  Code  Lc  fsl_sd.o [1]
SD_CardDeinit           0x00012227    0x22  Code  Gb  fsl_sd.o [1]
SD_CardInit             0x000120a1   0x186  Code  Gb  fsl_sd.o [1]
SD_DecodeCid            0x0001184f    0x7c  Code  Lc  fsl_sd.o [1]
SD_DecodeCsd            0x000115b7   0x21e  Code  Lc  fsl_sd.o [1]
SD_DecodeScr            0x000111a3    0xfa  Code  Lc  fsl_sd.o [1]
SD_Deinit               0x00012325    0x12  Code  Gb  fsl_sd.o [1]
SD_ExecuteTuning        0x00010e89    0x2a  Code  Lc  fsl_sd.o [1]
SD_GoIdle               0x00010e39    0x26  Code  Lc  fsl_sd.o [1]
SD_HostDeinit           0x00012289    0x26  Code  Gb  fsl_sd.o [1]
SD_HostInit             0x00012249    0x3a  Code  Gb  fsl_sd.o [1]
SD_HostReset            0x000122af     0xa  Code  Gb  fsl_sd.o [1]
SD_PowerOffCard         0x000122c1     0x8  Code  Gb  fsl_sd.o [1]
SD_PowerOnCard          0x000122b9     0x8  Code  Gb  fsl_sd.o [1]
SD_Read                 0x00011b61   0x144  Code  Lc  fsl_sd.o [1]
SD_ReadBlocks           0x00011e25   0x138  Code  Gb  fsl_sd.o [1]
SD_SelectBusTiming      0x00011a75    0x84  Code  Lc  fsl_sd.o [1]
SD_SelectCard           0x00010de1    0x2e  Code  Lc  fsl_sd.o [1]
SD_SelectFunction       0x0001138b   0x192  Code  Lc  fsl_sd.o [1]
SD_SendApplicationCmd   0x00010e0f    0x2a  Code  Lc  fsl_sd.o [1]
SD_SendCsd              0x000117d5    0x7a  Code  Lc  fsl_sd.o [1]
SD_SendInterfaceCondition
                        0x000119ed    0x82  Code  Lc  fsl_sd.o [1]
SD_SendRca              0x00011069    0x6c  Code  Lc  fsl_sd.o [1]
SD_SendScr              0x0001129d    0xee  Code  Lc  fsl_sd.o [1]
SD_SetBlockSize         0x00010e5f    0x2a  Code  Lc  fsl_sd.o [1]
SD_SetDataBusWidth      0x0001151d    0x9a  Code  Lc  fsl_sd.o [1]
SD_SetDriverStrength    0x00011af9    0x2a  Code  Lc  fsl_sd.o [1]
SD_SetMaxCurrent        0x00011b23    0x2a  Code  Lc  fsl_sd.o [1]
SD_StopTransmission     0x00010ff5    0x74  Code  Lc  fsl_sd.o [1]
SD_SwitchFunction       0x000110d5    0xce  Code  Lc  fsl_sd.o [1]
SD_SwitchVoltage        0x00010eb3    0x26  Code  Lc  fsl_sd.o [1]
SD_Transfer             0x00010ed9    0x9a  Code  Lc  fsl_sd.o [1]
SD_WaitWriteComplete    0x00010f73    0x82  Code  Lc  fsl_sd.o [1]
SD_Write                0x00011cb5   0x150  Code  Lc  fsl_sd.o [1]
SD_WriteBlocks          0x00011f5d   0x138  Code  Gb  fsl_sd.o [1]
SHT11Ground             0x0001c6a5    0x98  Code  Gb  SHT11Soil.o [1]
SIM_GetUniqueId         0x0001c061    0x14  Code  Gb  fsl_sim.o [1]
SMC_GetPowerModeState   0x0001bb03     0x4  Code  Lc  clock_config.o [1]
SMC_SetPowerModeProtection
                        0x0001baff     0x4  Code  Lc  clock_config.o [1]
SMC_SetPowerModeVlpr    0x0001c0e5    0x20  Code  Gb  fsl_smc.o [1]
SPI0_DriverIRQHandler   0x0001cf81    0x26  Code  Gb  fsl_dspi.o [1]
SPI1_DriverIRQHandler   0x0001cfa9    0x26  Code  Gb  fsl_dspi.o [1]
SPI2_DriverIRQHandler   0x0001cfd5    0x26  Code  Gb  fsl_dspi.o [1]
SVC_Handler             0x0001559d          Code  Gb  portasm.o [1]
SYSMPU_Enable           0x0001b1c3    0x1a  Code  Lc  main.o [1]
SysTick_Handler         0x00014d57    0x28  Code  Gb  port.o [1]
SystemCoreClock         0x1fff0058     0x4  Data  Gb  system_MK64F12.o [1]
SystemInit              0x0001dcc9    0x26  Code  Gb  system_MK64F12.o [1]
UART0_DriverIRQHandler  0x000190dd    0x10  Code  Gb  fsl_uart.o [1]
UART0_RX_TX_DriverIRQHandler
                        0x000190ed     0x8  Code  Gb  fsl_uart.o [1]
UART1_RX_TX_IRQHandler  0x0001b419    0x5e  Code  Gb  main.o [1]
UART2_DriverIRQHandler  0x000190f5    0x10  Code  Gb  fsl_uart.o [1]
UART2_RX_TX_DriverIRQHandler
                        0x00019105     0x8  Code  Gb  fsl_uart.o [1]
UART3_RX_TX_IRQHandler  0x0001b3b5    0x5e  Code  Gb  main.o [1]
UART4_RX_TX_IRQHandler  0x0001b357    0x5e  Code  Gb  main.o [1]
UART5_DriverIRQHandler  0x0001911d    0x10  Code  Gb  fsl_uart.o [1]
UART5_RX_TX_DriverIRQHandler
                        0x0001915d     0x8  Code  Gb  fsl_uart.o [1]
UART_EnableInterrupts   0x00019013    0x26  Code  Gb  fsl_uart.o [1]
UART_EnableRx           0x000179cf    0x1a  Code  Lc  fsl_debug_console.o [1]
UART_EnableTx           0x000179b5    0x1a  Code  Lc  fsl_debug_console.o [1]
UART_GetDefaultConfig   0x00018fd7    0x3c  Code  Gb  fsl_uart.o [1]
UART_GetInstance        0x00018db1    0x34  Code  Gb  fsl_uart.o [1]
UART_GetStatusFlags     0x00019039    0x1a  Code  Gb  fsl_uart.o [1]
UART_Init               0x00018de5   0x1f2  Code  Gb  fsl_uart.o [1]
UART_ReadBlocking       0x0001906b    0x68  Code  Gb  fsl_uart.o [1]
UART_ReadByte           0x0001b1a7     0x4  Code  Lc  main.o [1]
UART_WriteBlocking      0x00019053    0x18  Code  Gb  fsl_uart.o [1]
WDOG_GetDefaultConfig   0x0001bbd9    0x46  Code  Gb  fsl_wdog.o [1]
WDOG_Init               0x0001bc1f    0x94  Code  Gb  fsl_wdog.o [1]
WDOG_Refresh            0x0001bcbd    0x1c  Code  Gb  fsl_wdog.o [1]
WDOG_Unlock             0x0001bbcb     0xe  Code  Lc  fsl_wdog.o [1]
ZI$$Base                0x1fff0064           --   Gb  - Linker created -
ZI$$Limit               0x1fffa114           --   Gb  - Linker created -
_GenldFull              0x0001610d   0x26a  Code  Lc  xprintffull.o [3]
_LdtobFull              0x00015d0d   0x3fa  Code  Lc  xprintffull.o [3]
_LitobFull              0x00015c01   0x10a  Code  Lc  xprintffull.o [3]
_PrintfFull             0x000155ed   0x5a0  Code  Gb  xprintffull.o [3]
_PutcharsFull           0x00016377    0x2e  Code  Lc  xprintffull.o [3]
_SProut                 0x00010acb     0xa  Code  Gb  xsprout.o [3]
_Stoflt                 0x0001ab35   0x1ac  Code  Gb  xstoflt.o [3]
_Stopfx                 0x0001aa17   0x11e  Code  Gb  xstopfx.o [3]
_Stoxflt                0x0001aee1   0x1cc  Code  Gb  xstoxflt.o [3]
_Stoxflt::digits        0x0001b0b0    0x18  Data  Lc  xstoxflt.o [3]
_Stoxflt::vals          0x0001b0c8    0x18  Data  Lc  xstoxflt.o [3]
__RAM_VECTOR_TABLE_SIZE {Abs}
                        0x00000000          Data  Gb  command line/config [2]
__VECTOR_RAM {Abs}      0x00000000          Data  Gb  command line/config [2]
__VECTOR_TABLE {Abs}    0x00000000          Data  Gb  command line/config [2]
__Vectors               0x00000000           --   Gb  startup_MK64F12.o [1]
__Vectors_End           0x00000400          Data  Gb  startup_MK64F12.o [1]
__Vectors_Size {Abs}    0x00000400           --   Gb  startup_MK64F12.o [1]
__aeabi_assert          0x000123a1    0x24  Code  Gb  ABIassert.o [6]
__aeabi_cdcmpeq         0x00019165          Code  Gb  DblCmpEq.o [4]
__aeabi_cdcmple         0x000165e1          Code  Gb  DblCmpLe.o [4]
__aeabi_cdrcmple        0x00016611          Code  Gb  DblCmpGe.o [4]
__aeabi_d2f             0x00018cb9          Code  Gb  DblToFlt.o [4]
__aeabi_d2iz            0x00016755          Code  Gb  DblToI32.o [4]
__aeabi_d2lz            0x00019b79          Code  Gb  DblToI64.o [4]
__aeabi_d2uiz           0x00016781          Code  Gb  DblToI32.o [4]
__aeabi_dadd            0x00016d69          Code  Gb  DblAdd.o [4]
__aeabi_ddiv            0x00016b01          Code  Gb  DblDiv.o [4]
__aeabi_dmul            0x0001695d          Code  Gb  DblMul.o [4]
__aeabi_dsub            0x000167dd          Code  Gb  DblSub.o [4]
__aeabi_errno_addr      0x0001a695     0x6  Code  Gb  errno.o [3]
__aeabi_f2d             0x00018d49          Code  Gb  FltToDbl.o [4]
__aeabi_i2d             0x000167ad          Code  Gb  I32ToDbl.o [4]
__aeabi_l2d             0x00019bf5          Code  Gb  I64ToDbl.o [4]
__aeabi_ldiv0           0x00016d65          Code  Gb  I64DivZer.o [5]
__aeabi_ldivmod         0x00016469          Code  Gb  I64DivMod.o [5]
__aeabi_memclr4         0x000126e5          Code  Gb  ABImemclr4.o [5]
__aeabi_memset          0x00012339          Code  Gb  ABImemset.o [5]
__aeabi_ui2d            0x000167c1          Code  Gb  I32ToDbl.o [4]
__aeabi_uldivmod        0x000164ad          Code  Gb  I64DivMod.o [5]
__cmain                 0x0001e905          Code  Gb  cmain.o [5]
__exit                  0x0001378d    0x14  Code  Gb  exit.o [6]
__iar_Dint              0x0001a615    0x7e  Code  Gb  xdint.o [4]
__iar_Dnorm             0x0001659b    0x44  Code  Gb  xdnorm.o [4]
__iar_Dscale            0x00016641   0x114  Code  Gb  xdscale.o [4]
__iar_Dtentox           0x0001ad3d   0x140  Code  Gb  xdtento.o [4]
__iar_Dtest             0x0001b0e3    0x30  Code  Gb  xdtest.o [4]
__iar_Dunscale          0x0001b123    0x56  Code  Gb  xdunscal.o [4]
__iar_Errno             0x1fff005c     0x4  Data  Gb  errno.o [3]
__iar_Exp               0x0001a751   0x2be  Code  Gb  xexp.o [4]
__iar_Logpoly           0x0001a6a1    0x76  Code  Gb  xlog.o [4]
__iar_Memchr            0x00016411          Code  Gb  memchr.o [5]
__iar_Memset            0x00012339          Code  Gb  ABImemset.o [5]
__iar_Memset4_word      0x00013651          Code  Gb  ABImemset48.o [5]
__iar_Memset8_word      0x00013651          Code  Gb  ABImemset48.o [5]
__iar_Memset_word       0x00012341          Code  Gb  ABImemset.o [5]
__iar_Stod              0x0001a611     0x4  Code  Gb  xstod.o [4]
__iar_Stodx             0x0001a4ad   0x14e  Code  Gb  xstod.o [4]
__iar_Stoul             0x0001a31d     0x4  Code  Gb  xstoul.o [3]
__iar_Stoulx            0x0001a1d5   0x142  Code  Gb  xstoul.o [3]
__iar_Strchr            0x000163c1          Code  Gb  strchr.o [5]
__iar_copy_init3        0x0001e0b5    0x2c  Code  Gb  copy_init3.o [5]
__iar_d2uiz             0x0001678d          Code  Gb  DblToI32.o [4]
__iar_dadd              0x00016d7d          Code  Gb  DblAdd.o [4]
__iar_data_init3        0x0001e401    0x28  Code  Gb  data_init.o [5]
__iar_dlfree            0x00018785   0x51a  Code  Gb  dlmalloc.o [3]
__iar_dlib_perthread_access
                        0x0001b0e1     0x2  Code  Gb  xtls.o [3]
__iar_dsub              0x000167f1          Code  Gb  DblSub.o [4]
__iar_dsubStart         0x00016803          Code  Gb  DblSub.o [4]
__iar_init_vfp          0x0001e591          Code  Gb  fpinit_M.o [4]
__iar_modf              0x0001919d          Code  Gb  modf.o [4]
__iar_modfl             0x0001919d          Code  Gb  modf.o [4]
__iar_program_start     0x0001eb91          Code  Gb  cstartup_M.o [5]
__iar_ui2d              0x000167c5          Code  Gb  I32ToDbl.o [4]
__iar_ul2d              0x00019c11          Code  Gb  I64ToDbl.o [4]
__iar_unaligned___aeabi_memcpy
                        0x000126ed          Code  Gb  ABImemcpy_unaligned.o [5]
__iar_unaligned___aeabi_memcpy4
                        0x0001270d          Code  Gb  ABImemcpy_unaligned.o [5]
__iar_unaligned___aeabi_memcpy8
                        0x0001270d          Code  Gb  ABImemcpy_unaligned.o [5]
__iar_unaligned_strcmp  0x000184c5          Code  Gb  strcmp_unaligned.o [5]
__iar_vfp_atof          0x00018ca9    0x10  Code  Gb  atof.o [4]
__iar_vfp_modf          0x00019185          Code  Gb  modf.o [4]
__iar_vfp_modfl         0x00019185          Code  Gb  modf.o [4]
__iar_vfp_pow           0x00019739    0x18  Code  Gb  pow.o [4]
__iar_zero_init3        0x0001da59    0x40  Code  Gb  zero_init3.o [5]
__low_level_init        0x0001e91f     0x4  Code  Gb  low_level_init.o [3]
__vector_table          0x00000000          Data  Gb  startup_MK64F12.o [1]
__vector_table_0x1c     0x0000001c          Data  Gb  startup_MK64F12.o [1]
_call_main              0x0001e911          Code  Gb  cmain.o [5]
_exit                   0x0001e929          Code  Gb  cexit.o [5]
_gm_                    0x1fff9f24   0x1d8  Data  Lc  dlmalloc.o [3]
_main                   0x0001e91b          Code  Gb  cmain.o [5]
_readRawGround          0x0001c4a5   0x1da  Code  Gb  SHT11Soil.o [1]
_readTempGround         0x0001c67f    0x26  Code  Gb  SHT11Soil.o [1]
abort                   0x0001364b     0x6  Code  Gb  abort.o [3]
atoi                    0x00018507     0x8  Code  Gb  atoi.o [3]
bFileAccess_Open        0x0001a371    0x26  Code  Gb  FileAccess.o [1]
bFileAccess_Read_All    0x0001a39b    0x7c  Code  Gb  FileAccess.o [1]
bFileAccess_Write_All   0x0001a417    0x52  Code  Gb  FileAccess.o [1]
bSDCardTask_MMC_Access  0x0001cc55    0x90  Code  Lc  SDCardTask.o [1]
bUserFile_ReadAll       0x00018655    0xa4  Code  Gb  UserFile.o [1]
bUserFile_ReadFile      0x00018511    0xc8  Code  Gb  UserFile.o [1]
bUserFile_WriteFile     0x000185d9    0x7c  Code  Gb  UserFile.o [1]
cID_EndDevice           0x1fff9804    0x14  Data  Gb  main.o [1]
check_fs                0x0000ff43    0x76  Code  Lc  ff.o [1]
chk_chr                 0x0000eb8b    0x14  Code  Lc  ff.o [1]
clst2sect               0x0000ee07    0x18  Code  Lc  ff.o [1]
cmp_lfn                 0x0000f429    0xa2  Code  Lc  ff.o [1]
create_chain            0x0000f085   0x11e  Code  Lc  ff.o [1]
create_name             0x0000fb79   0x2c8  Code  Lc  ff.o [1]
dbc_1st                 0x0000eb9f    0x42  Code  Lc  ff.o [1]
dbc_2nd                 0x0000ebe1    0x62  Code  Lc  ff.o [1]
digits                  0x0001a320    0x28  Data  Lc  xstoul.o [3]
dir_alloc               0x0000f381    0x5a  Code  Lc  ff.o [1]
dir_clear               0x0000f1a3    0x68  Code  Lc  ff.o [1]
dir_find                0x0000f795   0x10e  Code  Lc  ff.o [1]
dir_next                0x0000f2af    0xd2  Code  Lc  ff.o [1]
dir_read                0x0000f6a3    0xf2  Code  Lc  ff.o [1]
dir_register            0x0000f8a3   0x158  Code  Lc  ff.o [1]
dir_sdi                 0x0000f20b    0xa4  Code  Lc  ff.o [1]
disk_initialize         0x00010c73    0x16  Code  Gb  diskio.o [1]
disk_ioctl              0x00010cb9    0x18  Code  Gb  diskio.o [1]
disk_read               0x00010c89    0x18  Code  Gb  diskio.o [1]
disk_status             0x00010c5d    0x16  Code  Gb  diskio.o [1]
disk_write              0x00010ca1    0x18  Code  Gb  diskio.o [1]
div                     0x00016d57     0xe  Code  Gb  div.o [3]
dmul                    0x0001ace1    0x5a  Code  Lc  xdtento.o [4]
driverNumberBuffer      0x0001ef20     0x4  Data  Gb  SDCardTask.o [1]
exit                    0x0001e923     0x4  Code  Gb  exit.o [3]
f_chdrive               0x000109b9    0x18  Code  Gb  ff.o [1]
f_close                 0x00010991    0x28  Code  Gb  ff.o [1]
f_mount                 0x00010305    0x58  Code  Gb  ff.o [1]
f_open                  0x0001035d   0x1f2  Code  Gb  ff.o [1]
f_opendir               0x000109f9    0x7e  Code  Gb  ff.o [1]
f_read                  0x00010555   0x1ae  Code  Gb  ff.o [1]
f_readdir               0x00010a77    0x54  Code  Gb  ff.o [1]
f_sync                  0x000108f7    0x9a  Code  Gb  ff.o [1]
f_write                 0x00010703   0x1f4  Code  Gb  ff.o [1]
ff_oem2uni              0x00010b3b    0x62  Code  Gb  ffunicode.o [1]
ff_uni2oem              0x00010ad5    0x66  Code  Gb  ffunicode.o [1]
ff_wtoupper             0x00010b9d    0xae  Code  Gb  ffunicode.o [1]
ff_wtoupper::cvt1       0x0001cd5c   0x1f4  Data  Lc  ffunicode.o [1]
ff_wtoupper::cvt2       0x0001d0f0    0xbc  Data  Lc  ffunicode.o [1]
find_volume             0x0000ffc5   0x2fa  Code  Lc  ff.o [1]
follow_path             0x0000fe41    0xb2  Code  Lc  ff.o [1]
g_defaultClockConfigVlpr
                        0x0001e5d8    0x20  Data  Gb  clock_config.o [1]
g_dspiHandle            0x1fff0288     0xc  Data  Lc  fsl_dspi.o [1]
g_eventCardDetect       0x1fff0578     0x4  Data  Lc  fsl_sdmmc_event.o [1]
g_eventTransferComplete
                        0x1fff0574     0x4  Data  Lc  fsl_sdmmc_event.o [1]
g_fileSystem            0x1fff9860   0x238  Data  Lc  SDCardTask.o [1]
g_sd                    0x1fff02b0    0xbc  Data  Gb  fsl_sd_disk.o [1]
g_sdmmc                 0x1fff0374   0x200  Data  Gb  fsl_sdmmc_common.o [1]
g_xtal0Freq             0x1fff0270     0x4  Data  Gb  fsl_clock.o [1]
g_xtal32Freq            0x1fff0274     0x4  Data  Gb  fsl_clock.o [1]
gen_numname             0x0000f5e1    0xa2  Code  Lc  ff.o [1]
get_fat                 0x0000ee1f    0xca  Code  Lc  ff.o [1]
get_fileinfo            0x0000f9fb   0x17e  Code  Lc  ff.o [1]
get_ldnumber            0x0000fef3    0x50  Code  Lc  ff.o [1]
init_mparams            0x00018745    0x32  Code  Lc  dlmalloc.o [3]
internal_Pow            0x000192b9   0x474  Code  Lc  pow.o [4]
ld_clust                0x0000f3db    0x26  Code  Lc  ff.o [1]
ld_dword                0x0000eb0f    0x18  Code  Lc  ff.o [1]
ld_word                 0x0000eb01     0xe  Code  Lc  ff.o [1]
lnbias                  0x00019758   0x420  Data  Lc  pow.o [4]
main                    0x0001b1f7    0xf8  Code  Gb  main.o [1]
mem_cmp                 0x0000eb6d    0x1e  Code  Lc  ff.o [1]
mem_cpy                 0x0000eb4d    0x14  Code  Lc  ff.o [1]
mem_set                 0x0000eb61     0xc  Code  Lc  ff.o [1]
memchr                  0x00016411          Code  Gb  memchr.o [5]
move_window             0x0000ed33    0x3c  Code  Lc  ff.o [1]
mparams                 0x1fff9f0c    0x18  Data  Lc  dlmalloc.o [3]
ndigs                   0x0001a348    0x28  Data  Lc  xstoul.o [3]
oem2uni932              0x00007788  0x7378  Data  Lc  ffunicode.o [1]
pcInterruptPriorityRegisters
                        0x0001ef1c     0x4  Data  Lc  port.o [1]
pick_lfn                0x0000f4cb    0x82  Code  Lc  ff.o [1]
pows                    0x0001ae98    0x48  Data  Lc  xdtento.o [4]
prvAddCurrentTaskToDelayedList
                        0x00014b09    0x80  Code  Lc  tasks.o [1]
prvAddNewTaskToReadyList
                        0x000140db    0xc0  Code  Lc  tasks.o [1]
prvCheckForValidListAndQueue
                        0x0001549f    0x4c  Code  Lc  timers.o [1]
prvCheckTasksWaitingTermination
                        0x000148a9    0x64  Code  Lc  tasks.o [1]
prvCopyDataFromQueue    0x00013e2b    0x2a  Code  Lc  queue.o [1]
prvCopyDataToQueue      0x00013da5    0x86  Code  Lc  queue.o [1]
prvDeleteTCB            0x0001490d    0x12  Code  Lc  tasks.o [1]
prvGetNextExpireTime    0x00015297    0x2a  Code  Lc  timers.o [1]
prvHeapInit             0x00015017    0x64  Code  Lc  heap_4.o [1]
prvIdleTask             0x00014819    0x24  Code  Lc  tasks.o [1]
prvInitialiseNewQueue   0x0001387d    0x22  Code  Lc  queue.o [1]
prvInitialiseNewTask    0x00014017    0xc4  Code  Lc  tasks.o [1]
prvInitialiseTaskLists  0x00014845    0x56  Code  Lc  tasks.o [1]
prvInsertBlockIntoFreeList
                        0x0001507b    0x5c  Code  Lc  heap_4.o [1]
prvInsertTimerInActiveList
                        0x000152e9    0x3e  Code  Lc  timers.o [1]
prvIsQueueEmpty         0x00013ec3    0x1c  Code  Lc  queue.o [1]
prvIsQueueFull          0x00013edf    0x1e  Code  Lc  queue.o [1]
prvProcessExpiredTimer  0x000151ad    0x5c  Code  Lc  timers.o [1]
prvProcessReceivedCommands
                        0x00015327    0xfa  Code  Lc  timers.o [1]
prvProcessTimerOrBlockTask
                        0x00015221    0x76  Code  Lc  timers.o [1]
prvResetNextTaskUnblockTime
                        0x0001491f    0x28  Code  Lc  tasks.o [1]
prvSampleTimeNow        0x000152c1    0x28  Code  Lc  timers.o [1]
prvSampleTimeNow::xLastTime
                        0x1fff9f08     0x4  Data  Lc  timers.o [1]
prvSwitchTimerLists     0x00015421    0x7e  Code  Lc  timers.o [1]
prvTaskExitError        0x00014bf5    0x2a  Code  Lc  port.o [1]
prvTaskIsTaskSuspended  0x000142bd    0x36  Code  Lc  tasks.o [1]
prvTimerTask            0x0001520d    0x14  Code  Lc  timers.o [1]
prvUnlockQueue          0x00013e55    0x6e  Code  Lc  queue.o [1]
put_fat                 0x0000eee9   0x112  Code  Lc  ff.o [1]
put_lfn                 0x0000f54d    0x88  Code  Lc  ff.o [1]
put_utf                 0x0000ec9f    0x44  Code  Lc  ff.o [1]
pvPortMalloc            0x00014e95   0x10c  Code  Gb  heap_4.o [1]
pvTaskIncrementMutexHeldCount
                        0x00014ad1    0x1e  Code  Gb  tasks.o [1]
pxCurrentTCB            0x1fff9dcc     0x4  Data  Gb  tasks.o [1]
pxCurrentTimerList      0x1fff9ef8     0x4  Data  Lc  timers.o [1]
pxDelayedTaskList       0x1fff9e5c     0x4  Data  Lc  tasks.o [1]
pxEnd                   0x1fff91e8     0x4  Data  Lc  heap_4.o [1]
pxOverflowDelayedTaskList
                        0x1fff9e60     0x4  Data  Lc  tasks.o [1]
pxOverflowTimerList     0x1fff9efc     0x4  Data  Lc  timers.o [1]
pxPortInitialiseStack   0x00014bcd    0x28  Code  Gb  port.o [1]
pxReadyTasksLists       0x1fff9dd0    0x64  Data  Lc  tasks.o [1]
remove_chain            0x0000effb    0x8a  Code  Lc  ff.o [1]
s_cardInserted          0x1fffa111     0x1  Data  Lc  SDCardTask.o [1]
s_debugConsole          0x1fff0278    0x10  Data  Lc  fsl_debug_console.o [1]
s_dspiMasterIsr         0x1fff0294     0x4  Data  Lc  fsl_dspi.o [1]
s_dspiSlaveIsr          0x1fff0298     0x4  Data  Lc  fsl_dspi.o [1]
s_fastIrcFreq           0x1fff0004     0x4  Data  Lc  fsl_clock.o [1]
s_ftmBases              0x0001ea40    0x10  Data  Lc  fsl_ftm.o [1]
s_ftmClocks             0x0001ea50    0x10  Data  Lc  fsl_ftm.o [1]
s_i2cHandle             0x1fff029c     0xc  Data  Lc  fsl_i2c.o [1]
s_i2cMasterIsr          0x1fff02a8     0x4  Data  Lc  fsl_i2c.o [1]
s_i2cSlaveIsr           0x1fff02ac     0x4  Data  Lc  fsl_i2c.o [1]
s_sdCardDetect          0x0001e9cc    0x14  Data  Lc  SDCardTask.o [1]
s_sdInsertedFlag        0x1fffa10d     0x1  Data  Lc  fsl_sdmmc_host.o [1]
s_sdhcAdmaTable         0x1fff05a4    0x20  Data  Lc  fsl_sdmmc_host.o [1]
s_sdhcBase              0x0001eeec     0x4  Data  Lc  fsl_sdhc.o [1]
s_sdhcClock             0x0001eef0     0x4  Data  Lc  fsl_sdhc.o [1]
s_sdhcHandle            0x1fff036c     0x4  Data  Lc  fsl_sdhc.o [1]
s_sdhcHandle            0x1fff057c    0x28  Data  Lc  fsl_sdmmc_host.o [1]
s_sdhcIRQ               0x00013f9e     0x1  Data  Lc  fsl_sdhc.o [1]
s_sdhcIsr               0x1fff0370     0x4  Data  Lc  fsl_sdhc.o [1]
s_sdhcTransferSuccessFlag
                        0x1fff0060     0x1  Data  Lc  fsl_sdmmc_host.o [1]
s_slowIrcFreq           0x1fff0000     0x4  Data  Lc  fsl_clock.o [1]
s_uartBases             0x0001e94c    0x18  Data  Lc  fsl_uart.o [1]
s_uartClock             0x0001e964    0x18  Data  Lc  fsl_uart.o [1]
s_uartHandle            0x1fff05c4    0x18  Data  Lc  fsl_uart.o [1]
s_uartIsr               0x1fff05dc     0x4  Data  Lc  fsl_uart.o [1]
sd_disk_initialize      0x00010d7f    0x44  Code  Gb  fsl_sd_disk.o [1]
sd_disk_ioctl           0x00010d11    0x60  Code  Gb  fsl_sd_disk.o [1]
sd_disk_read            0x00010cf1    0x20  Code  Gb  fsl_sd_disk.o [1]
sd_disk_status          0x00010d71     0xe  Code  Gb  fsl_sd_disk.o [1]
sd_disk_write           0x00010cd1    0x20  Code  Gb  fsl_sd_disk.o [1]
segment_holding         0x00018729    0x1c  Code  Lc  dlmalloc.o [3]
sprintf                 0x0001a479    0x34  Code  Gb  sprintf.o [3]
st_clust                0x0000f401    0x28  Code  Lc  ff.o [1]
st_dword                0x0000eb35    0x18  Code  Lc  ff.o [1]
st_word                 0x0000eb27     0xe  Code  Lc  ff.o [1]
strchr                  0x000163c1          Code  Gb  strchr.o [5]
strlen                  0x000163d9          Code  Gb  strlen.o [5]
sum_sfn                 0x0000f683    0x20  Code  Lc  ff.o [1]
sync_fs                 0x0000ed6f    0x98  Code  Lc  ff.o [1]
sync_window             0x0000ece3    0x50  Code  Lc  ff.o [1]
tchar2uni               0x0000ec43    0x5c  Code  Lc  ff.o [1]
uError_Counter          0x1fffa112     0x1  Data  Gb  SDCardTask.o [1]
uLedStatus              0x1fffa10e     0x1  Data  Gb  main.o [1]
uReadSS_Counter         0x1fff9dc8     0x4  Data  Gb  SensorTask.o [1]
uSendData_Counter       0x1fff981c     0x4  Data  Gb  ProcessTask.o [1]
uUART_EC_Buffer         0x1fff93fc   0x204  Data  Gb  main.o [1]
uUART_PH_Buffer         0x1fff9600   0x204  Data  Gb  main.o [1]
uUART_ZigB_Buffer       0x1fff91f8   0x204  Data  Gb  main.o [1]
ucHeap                  0x1fff05e0  0x8c00  Data  Lc  heap_4.o [1]
ucMaxSysCallPriority    0x1fffa10f     0x1  Data  Lc  port.o [1]
ui16SecCounter          0x1fffa106     0x2  Data  Gb  main.o [1]
ui16SendCounter         0x1fffa10a     0x2  Data  Gb  main.o [1]
ui16TimerCounter        0x1fffa104     0x2  Data  Gb  main.o [1]
ui16WAMICounter         0x1fffa108     0x2  Data  Gb  main.o [1]
uiUART_EC_Cnt           0x1fffa100     0x2  Data  Gb  main.o [1]
uiUART_PH_Cnt           0x1fffa102     0x2  Data  Gb  main.o [1]
uiUART_ZigB_Cnt         0x1fffa0fe     0x2  Data  Gb  main.o [1]
ulMaxPRIGROUPValue      0x1fff9818     0x4  Data  Lc  port.o [1]
uni2oem932              0x00000410  0x7378  Data  Lc  ffunicode.o [1]
uxCriticalNesting       0x1fff0054     0x4  Data  Lc  port.o [1]
uxCurrentNumberOfTasks  0x1fff9ea4     0x4  Data  Lc  tasks.o [1]
uxDeletedTasksWaitingCleanUp
                        0x1fff9e8c     0x4  Data  Lc  tasks.o [1]
uxListRemove            0x00014e6f    0x26  Code  Gb  list.o [1]
uxPendedTicks           0x1fff9eb4     0x4  Data  Lc  tasks.o [1]
uxSchedulerSuspended    0x1fff9ecc     0x4  Data  Lc  tasks.o [1]
uxTaskNumber            0x1fff9ec0     0x4  Data  Lc  tasks.o [1]
uxTopReadyPriority      0x1fff9eac     0x4  Data  Lc  tasks.o [1]
vListInitialise         0x00014dfd    0x1e  Code  Gb  list.o [1]
vListInitialiseItem     0x00014e1b     0x6  Code  Gb  list.o [1]
vListInsert             0x00014e39    0x36  Code  Gb  list.o [1]
vListInsertEnd          0x00014e21    0x18  Code  Gb  list.o [1]
vMain_GetUniqueID       0x0001b669   0x1c4  Code  Gb  main.o [1]
vMain_InitWatchdog      0x0001b477    0x4c  Code  Gb  main.o [1]
vMain_Peripheral_Init   0x0001b2ef    0x68  Code  Gb  main.o [1]
vMain_RefreshWDT        0x0001b4c3     0xc  Code  Gb  main.o [1]
vMain_TimerInit         0x0001b4cf    0x58  Code  Gb  main.o [1]
vPacketHandle_Coppy     0x00017985    0x2e  Code  Gb  PacketHandle.o [1]
vPacketHandle_HandleMessage
                        0x000171bd    0xe0  Code  Gb  PacketHandle.o [1]
vPacketHandle_HandleMessageConfig
                        0x0001729d   0x548  Code  Gb  PacketHandle.o [1]
vPacketHandle_HandleMessageRequest
                        0x000177e9    0x68  Code  Gb  PacketHandle.o [1]
vPacketHandle_HandleMessageResponse
                        0x00017851    0x40  Code  Gb  PacketHandle.o [1]
vPacketHandle_HandleMessageWhoAmI
                        0x00017891    0x2e  Code  Gb  PacketHandle.o [1]
vPacketHandle_SendMessage
                        0x00016e51   0x168  Code  Gb  PacketHandle.o [1]
vPacketHandle_SendWhoAmI
                        0x000178bf    0x2a  Code  Gb  PacketHandle.o [1]
vPortEnableVFP          0x000155d1          Code  Gb  portasm.o [1]
vPortEnterCritical      0x00014ceb    0x3a  Code  Gb  port.o [1]
vPortExitCritical       0x00014d25    0x32  Code  Gb  port.o [1]
vPortFree               0x00014fa1    0x76  Code  Gb  heap_4.o [1]
vPortSetupTimerInterrupt
                        0x00015515    0x30  Code  Wk  fsl_tickless_systick.o [1]
vPortStartFirstTask     0x000155b9          Code  Gb  portasm.o [1]
vPortValidateInterruptPriority
                        0x00014d81    0x4a  Code  Gb  port.o [1]
vProcessTask_Task       0x0001c7c5   0x262  Code  Gb  ProcessTask.o [1]
vQueueAddToRegistry     0x00013efd    0x24  Code  Gb  queue.o [1]
vQueueDelete            0x00013d7f    0x26  Code  Gb  queue.o [1]
vQueueUnregisterQueue   0x00013f21    0x2a  Code  Gb  queue.o [1]
vQueueWaitForMessageRestricted
                        0x00013f55    0x4a  Code  Gb  queue.o [1]
vSDCardTask_Run         0x0001cabb   0x18e  Code  Gb  SDCardTask.o [1]
vSensorTask_SetDataSensor
                        0x0001c2b7   0x130  Code  Gb  SensorTask.o [1]
vSensorTask_Task        0x0001c105   0x1b2  Code  Gb  SensorTask.o [1]
vTaskDelay              0x0001419b    0x4c  Code  Gb  tasks.o [1]
vTaskMissedYield        0x00014809     0xa  Code  Gb  tasks.o [1]
vTaskPlaceOnEventList   0x00014667    0x2e  Code  Gb  tasks.o [1]
vTaskPlaceOnEventListRestricted
                        0x00014695    0x38  Code  Gb  tasks.o [1]
vTaskPriorityInherit    0x00014967    0xa8  Code  Gb  tasks.o [1]
vTaskResume             0x000142f3    0x86  Code  Gb  tasks.o [1]
vTaskSetTimeOutState    0x00014761    0x26  Code  Gb  tasks.o [1]
vTaskStartScheduler     0x00014379    0x6e  Code  Gb  tasks.o [1]
vTaskSuspend            0x000141e7    0xd6  Code  Gb  tasks.o [1]
vTaskSuspendAll         0x000143e7    0x10  Code  Gb  tasks.o [1]
vTaskSwitchContext      0x000145fb    0x6c  Code  Gb  tasks.o [1]
vUART_Init              0x00018461    0x58  Code  Gb  UART.o [1]
vUART_Write             0x000184b9     0xa  Code  Gb  UART.o [1]
vWhoAmITask_Task        0x0001d03f    0x96  Code  Gb  WhoAmITask.o [1]
validate                0x000102bf    0x46  Code  Lc  ff.o [1]
xActiveTimerList1       0x1fff9ed0    0x14  Data  Lc  timers.o [1]
xActiveTimerList2       0x1fff9ee4    0x14  Data  Lc  timers.o [1]
xBlockAllocatedBit      0x1fff91f4     0x4  Data  Lc  heap_4.o [1]
xDataLocal              0x1fff0008    0x24  Data  Gb  main.o [1]
xDelayedTaskList1       0x1fff9e34    0x14  Data  Lc  tasks.o [1]
xDelayedTaskList2       0x1fff9e48    0x14  Data  Lc  tasks.o [1]
xFileAccess_GetSizeByID
                        0x0001a397     0x4  Code  Lc  FileAccess.o [1]
xFlags                  0x1fff002c     0xc  Data  Gb  main.o [1]
xFreeBytesReMaining     0x1fff91ec     0x4  Data  Lc  heap_4.o [1]
xHeapStructSize         0x0001eef4     0x4  Data  Lc  heap_4.o [1]
xIdleTaskHandle         0x1fff9ec8     0x4  Data  Lc  tasks.o [1]
xMinimumEverFreeBytesReMaining
                        0x1fff91f0     0x4  Data  Lc  heap_4.o [1]
xNextTaskUnblockTime    0x1fff9ec4     0x4  Data  Lc  tasks.o [1]
xNumOfOverflows         0x1fff9ebc     0x4  Data  Lc  tasks.o [1]
xPacketHandle_RecvMessage
                        0x00016fb9   0x204  Code  Gb  PacketHandle.o [1]
xPacketSend             0x1fff9a98   0x310  Data  Gb  SensorTask.o [1]
xPendingReadyList       0x1fff9e64    0x14  Data  Lc  tasks.o [1]
xPortStartScheduler     0x00014c1f    0xcc  Code  Gb  port.o [1]
xQueueGenericCreate     0x00013833    0x4a  Code  Gb  queue.o [1]
xQueueGenericReceive    0x00013bc1   0x1be  Code  Gb  queue.o [1]
xQueueGenericReset      0x000137a1    0x92  Code  Gb  queue.o [1]
xQueueGenericSend       0x0001389f   0x196  Code  Gb  queue.o [1]
xQueueGenericSendFromISR
                        0x00013a35    0xd8  Code  Gb  queue.o [1]
xQueueGiveFromISR       0x00013b0d    0xb4  Code  Gb  queue.o [1]
xQueueRegistry          0x1fff9820    0x40  Data  Gb  queue.o [1]
xSS_Value               0x1fff9da8    0x10  Data  Gb  SensorTask.o [1]
xSchedulerRunning       0x1fff9eb0     0x4  Data  Lc  tasks.o [1]
xStart                  0x1fff91e0     0x8  Data  Lc  heap_4.o [1]
xSuspendedTaskList      0x1fff9e90    0x14  Data  Lc  tasks.o [1]
xTask                   0x1fff0038    0x18  Data  Gb  main.o [1]
xTaskCheckForTimeOut    0x00014789    0x80  Code  Gb  tasks.o [1]
xTaskCreate             0x00013fa1    0x76  Code  Gb  tasks.o [1]
xTaskGetSchedulerState  0x00014947    0x20  Code  Gb  tasks.o [1]
xTaskGetTickCount       0x000144f1     0x8  Code  Gb  tasks.o [1]
xTaskIncrementTick      0x000144f9   0x102  Code  Gb  tasks.o [1]
xTaskPriorityDisinherit
                        0x00014a15    0xb2  Code  Gb  tasks.o [1]
xTaskRemoveFromEventList
                        0x000146d5    0x7c  Code  Gb  tasks.o [1]
xTaskResumeAll          0x000143f7    0xfa  Code  Gb  tasks.o [1]
xTasksWaitingTermination
                        0x1fff9e78    0x14  Data  Lc  tasks.o [1]
xTemp_Val               0x1fff9db8    0x10  Data  Gb  SensorTask.o [1]
xTickCount              0x1fff9ea8     0x4  Data  Lc  tasks.o [1]
xTimerCreateTimerTask   0x000150f5    0x46  Code  Gb  timers.o [1]
xTimerGenericCommand    0x0001513b    0x72  Code  Gb  timers.o [1]
xTimerQueue             0x1fff9f00     0x4  Data  Lc  timers.o [1]
xTimerTaskHandle        0x1fff9f04     0x4  Data  Lc  timers.o [1]
xWdog_Base              0x1fff0050     0x4  Data  Lc  main.o [1]
xYieldPending           0x1fff9eb8     0x4  Data  Lc  tasks.o [1]


[1] = D:\03.OneDrive\OneDrive\outsource\smartfarm_hosco\fw_smf_v1.1\SF_FW_NODE\Release\Obj
[2] = command line
[3] = dl7M_tln.a
[4] = m7M_tls.a
[5] = rt7M_tl.a
[6] = shb_l.a

  60 095 bytes of readonly  code memory
  66 673 bytes of readonly  data memory
  42 256 bytes of readwrite data memory

Errors: none
Warnings: none
